(dp0
S'METTS MARK'
p1
(dp2
S'to_messages'
p3
F0.05327084295993135
sS'deferral_payments'
p4
F0.0031846247188520088
sS'expenses'
p5
F0.018012499240716396
sS'poi_email_percent'
p6
F0.20793561106970257
sS'poi'
p7
I00
sS'deferred_income'
p8
F1.0
sS'email_address'
p9
S'mark.metts@enron.com'
p10
sS'long_term_incentive'
p11
F0.0
sS'restricted_stock_deferred'
p12
F0.3289524743501498
sS'shared_receipt_with_poi'
p13
F0.12715087846404638
sS'loan_advances'
p14
F0.0
sS'from_messages'
p15
F0.0020183741648106906
sS'other'
p16
F4.0780368443129046e-05
sS'director_fees'
p17
F0.0
sS'bonus'
p18
F0.006163732211353268
sS'total_stock_value'
p19
F0.0014478190819469075
sS'from_poi_to_this_person'
p20
F0.07196969696969698
sS'from_this_person_to_poi'
p21
F0.0016420361247947454
sS'restricted_stock'
p22
F0.023994802131269415
sS'salary'
p23
F0.013697755512806605
sS'total_payments'
p24
F0.0034265019894294552
sS'exercised_stock_options'
p25
F0.0
ssS'BAXTER JOHN C'
p26
(dp27
g3
F0.0
sg4
F0.04344256875744581
sg5
F0.002139365120478729
sg6
F0.0
sg7
I00
sg8
F0.9504854643273537
sg9
I0
sg11
F0.032687386206088104
sg12
F0.3289524743501498
sg13
F0.0
sg14
F0.0
sg15
F0.0
sg16
F0.062349503741587084
sg17
F0.0
sg18
F0.012327464422706536
sg19
F0.024547836910817567
sg20
F0.0
sg21
F0.0
sg22
F0.04925421015022036
sg23
F0.010002235975432955
sg24
F0.01818195195509996
sg25
F0.02142820851669853
ssS'ELLIOTT STEVEN'
p28
(dp29
g3
F0.0
sg4
F0.0031846247188520088
sg5
F0.015004590084271885
sg6
F0.0
sg7
I00
sg8
F0.9856846154261094
sg9
S'steven.elliott@enron.com'
p30
sg11
F0.0
sg12
F0.3289524743501498
sg13
F0.0
sg14
F0.0
sg15
F0.0
sg16
F0.0003037668709145951
sg17
F0.0
sg18
F0.0035955104566227397
sg19
F0.015470652959997083
sg20
F0.0
sg21
F0.0
sg22
F0.033047371662607454
sg23
F0.006401270750037382
sg24
F0.0006832338353723831
sg25
F0.01568604457217639
ssS'CORDES WILLIAM R'
p31
(dp32
g3
F0.050432371773714436
sg4
F0.0031846247188520088
sg5
F0.0
sg6
F0.057439258146402106
sg7
I00
sg8
F1.0
sg9
S'bill.cordes@enron.com'
p33
sg11
F0.0
sg12
F0.3289524743501498
sg13
F0.01050534323492121
sg14
F0.0
sg15
F0.0008351893095768374
sg16
F0.0
sg17
F0.0
sg18
F0.0
sg19
F0.0024905512002151063
sg20
F0.01893939393939394
sg21
F0.0
sg22
F0.022499791219661523
sg23
F0.0
sg24
F0.0
sg25
F0.002090844356628732
ssS'HANNON KEVIN P'
p34
(dp35
g3
F0.06898145092085287
sg4
F0.0031846247188520088
sg5
F0.0065019508335692365
sg6
F0.2193465003756013
sg7
I01
sg8
F0.8886499075783205
sg9
S'kevin.hannon@enron.com'
p36
sg11
F0.03332536580162272
sg12
F0.3289524743501498
sg13
F0.187466038761094
sg14
F0.0
sg15
F0.0022271714922048997
sg16
F0.0002660098746146636
sg17
F0.0
sg18
F0.01540933052838317
sg19
F0.014808663282884658
sg20
F0.06060606060606061
sg21
F0.034482758620689655
sg22
F0.026010964576899543
sg23
F0.009110654346171162
sg24
F0.0009315730785829274
sg25
F0.017763439653070912
ssS'MORDAUNT KRISTINA M'
p37
(dp38
g3
F0.0
sg4
F0.0031846247188520088
sg5
F0.006688954266868225
sg6
F0.0
sg7
I00
sg8
F1.0
sg9
S'kristina.mordaunt@enron.com'
p39
sg11
F0.0
sg12
F0.3289524743501498
sg13
F0.0
sg14
F0.0
sg15
F0.0
sg16
F3.3069597628307517e-05
sg17
F0.0
sg18
F0.0033386882811496867
sg19
F0.0005812930733396932
sg20
F0.0
sg21
F0.0
sg22
F0.021162024759358328
sg23
F0.010001898950162538
sg24
F0.002028232361204019
sg25
F0.0
ssS'MEYER ROCKFORD G'
p40
(dp41
g3
F0.015314542214007526
sg4
F0.060608130965190465
sg5
F0.0
sg6
F0.0
sg7
I00
sg8
F1.0
sg9
S'rockford.meyer@enron.com'
p42
sg11
F0.0
sg12
F0.3289524743501498
sg13
F0.003984785364970114
sg14
F0.0
sg15
F0.0019487750556792874
sg16
F0.0
sg17
F0.0
sg18
F0.0
sg19
F0.002301133832041582
sg20
F0.0
sg21
F0.0
sg22
F0.02307190313609396
sg23
F0.0
sg24
F0.005964204613762161
sg25
F0.0015828928291913113
ssS'MCMAHON JEFFREY'
p43
(dp44
g3
F0.15545580566374018
sg4
F0.0031846247188520088
sg5
F0.026189649369517638
sg6
F0.15581026229775596
sg7
I00
sg8
F1.0
sg9
S'jeffrey.mcmahon@enron.com'
p45
sg11
F0.014320576874026934
sg12
F0.3289524743501498
sg13
F0.40355008150697336
sg14
F0.0
sg15
F0.0033407572383073497
sg16
F0.006969060286017098
sg17
F0.0
sg18
F0.026709506249197493
sg19
F0.003928049346013479
sg20
F0.10984848484848485
sg21
F0.042692939244663386
sg22
F0.0237972422549077
sg23
F0.013872259708378024
sg24
F0.01322990796778118
sg25
F0.0035413133010867193
ssS'HORTON STANLEY C'
p46
(dp47
g3
F0.1551257508746452
sg4
F0.1004899785918652
sg5
F0.0
sg6
F0.07682731507376203
sg7
I00
sg8
F1.0
sg9
S'stanley.horton@enron.com'
p48
sg11
F0.0
sg12
F0.3289524743501498
sg13
F0.19452997645354103
sg14
F0.0
sg15
F0.07467984409799555
sg16
F0.0
sg17
F0.0
sg18
F0.0
sg19
F0.01680055333288641
sg20
F0.08333333333333333
sg21
F0.024630541871921183
sg22
F0.03498594252509929
sg23
F0.0
sg24
F0.01010647169512033
sg25
F0.016713183690227222
ssS'PIPER GREGORY F'
p49
(dp50
g3
F0.08172156577991947
sg4
F0.038294288902194926
sg5
F0.008224521785040413
sg6
F0.3327700144558408
sg7
I00
sg8
F0.9988092333871482
sg9
S'greg.piper@enron.com'
p51
sg11
F0.0
sg12
F0.311171351045657
sg13
F0.13439594276399203
sg14
F0.0
sg15
F0.015451002227171492
sg16
F1.823398083261747e-05
sg17
F0.0
sg18
F0.004109154807568845
sg19
F0.0021272013199089704
sg20
F0.11553030303030302
sg21
F0.07881773399014778
sg22
F0.02267446631844842
sg23
F0.0073805163968598386
sg24
F0.005607306298851239
sg25
F0.002823578091120206
ssS'HUMPHREY GENE E'
p52
(dp53
g3
F0.008449402600831738
sg4
F0.09529037190699927
sg5
F0.0009539276260420331
sg6
F0.8299774735747705
sg7
I00
sg8
F1.0
sg9
S'gene.humphrey@enron.com'
p54
sg11
F0.0
sg12
F0.3289524743501498
sg13
F0.021554066292338345
sg14
F0.0
sg15
F0.001183184855233853
sg16
F0.0
sg17
F0.0
sg18
F0.0
sg19
F0.00535460062597939
sg20
F0.01893939393939394
sg21
F0.027914614121510674
sg22
F0.019593416944721352
sg23
F0.0048952546055533
sg24
F0.010004382732476141
sg25
F0.007322102616081395
ssS'UMANOFF ADAM S'
p55
(dp56
g3
F0.007327216317908773
sg4
F0.0031846247188520088
sg5
F0.01014708517232777
sg6
F0.4146312960149585
sg7
I00
sg8
F1.0
sg9
S'adam.umanoff@enron.com'
p57
sg11
F0.0
sg12
F0.3289524743501498
sg13
F0.007426190907444304
sg14
F0.0
sg15
F0.0012527839643652562
sg16
F0.0
sg17
F0.0
sg18
F0.008102739636174817
sg19
F0.00010146734394590363
sg20
F0.022727272727272728
sg21
F0.0
sg22
F0.019593416944721352
sg23
F0.010806865084927186
sg24
F0.003647983019335929
sg25
F0.0
ssS'BLACHMAN JEREMY M'
p58
(dp59
g3
F0.16337712060201995
sg4
F0.0031846247188520088
sg5
F0.016084969470113644
sg6
F0.04835143980246754
sg7
I00
sg8
F1.0
sg9
S'jeremy.blachman@enron.com'
p60
sg11
F0.01714295029661641
sg12
F0.3289524743501498
sg13
F0.42130048904184025
sg14
F0.0
sg15
F0.0009743875278396437
sg16
F6.374862193408678e-06
sg17
F0.0
sg18
F0.008731953966083797
sg19
F0.0022976382909023116
sg20
F0.04734848484848485
sg21
F0.003284072249589491
sg22
F0.021015560678291866
sg23
F0.00930736476233783
sg24
F0.006501846473928518
sg25
F0.0024547831051692946
ssS'SUNDE MARTIN'
p61
(dp62
g3
F0.1747310053468876
sg4
F0.0031846247188520088
sg5
F0.0
sg6
F0.08300347173483806
sg7
I00
sg8
F1.0
sg9
S'marty.sunde@enron.com'
p63
sg11
F0.009819292423829491
sg12
F0.3289524743501498
sg13
F0.46458974823401555
sg14
F0.0
sg15
F0.0026447661469933183
sg16
F0.002604365575941026
sg17
F0.0
sg18
F0.0071910209132454795
sg19
F0.001709830486183242
sg20
F0.07007575757575757
sg21
F0.021346469622331693
sg22
F0.0248513488127664
sg23
F0.009642143197618625
sg24
F0.00498588540062165
sg25
F0.0
ssS'GIBBS DANA R'
p64
(dp65
g3
F0.011155851871410653
sg4
F0.018862609883534078
sg5
F0.0
sg6
F0.0
sg7
I00
sg8
F1.0
sg9
S'dana.gibbs@enron.com'
p66
sg11
F0.009519654701272381
sg12
F0.3289524743501498
sg13
F0.004165911972468755
sg14
F0.0
sg15
F0.0008351893095768374
sg16
F0.0
sg17
F0.0
sg18
F0.0
sg19
F0.005206188555739144
sg20
F0.0
sg21
F0.0
sg22
F0.019593416944721352
sg23
F0.0
sg24
F0.003118953987633895
sg25
F0.007115237808085604
ssS'LOWRY CHARLES P'
p67
(dp68
g3
F0.0
sg4
F0.0031846247188520088
sg5
F0.0
sg6
F0.0
sg7
I00
sg8
F1.0
sg9
I0
sg11
F0.0
sg12
F0.3222800704274088
sg13
F0.0
sg14
F0.0
sg15
F0.0
sg16
F0.0
sg17
F0.0
sg18
F0.0
sg19
F0.0009579899836706911
sg20
F0.0
sg21
F0.0
sg22
F0.020749587203223573
sg23
F0.0
sg24
F0.0
sg25
F0.0011938677974365226
ssS'COLWELL WESLEY'
p69
(dp70
g3
F0.1160472638457984
sg4
F0.004042453874827657
sg5
F0.0031544174642487255
sg6
F0.6222352027098785
sg7
I01
sg8
F0.9948536219427997
sg9
S'wes.colwell@enron.com'
p71
sg11
F0.0
sg12
F0.3289524743501498
sg13
F0.20503531968846223
sg14
F0.0
sg15
F0.0027839643652561247
sg16
F0.002384479704255143
sg17
F0.0
sg18
F0.012327464422706536
sg19
F0.001708270264397577
sg20
F0.45454545454545453
sg21
F0.0180623973727422
sg22
F0.024846248260762545
sg23
F0.010805105064070564
sg24
F0.004809320803609489
sg25
F0.0
ssS'MULLER MARK S'
p72
(dp73
g3
F0.008977490263383722
sg4
F0.029373859904350652
sg5
F0.0
sg6
F0.3518910341179582
sg7
I00
sg8
F0.9743149073098595
sg9
S's..muller@enron.com'
p74
sg11
F0.03556216892288369
sg12
F0.3289524743501498
sg13
F0.020648433254845135
sg14
F0.0
sg15
F0.0011135857461024498
sg16
F2.2194832710139772e-05
sg17
F0.0
sg18
F0.011300175720814324
sg19
F0.003361935067508956
sg20
F0.022727272727272728
sg21
F0.0
sg22
F0.022305646757178495
sg23
F0.00942375082238847
sg24
F0.010333038456634061
sg25
F0.003388203897820146
ssS'JACKSON CHARLENE R'
p75
(dp76
g3
F0.017030827117301472
sg4
F0.0031846247188520088
sg5
F0.0019447210974637445
sg6
F0.6245879076913228
sg7
I00
sg8
F1.0
sg9
S'charlene.jackson@enron.com'
p77
sg11
F0.0
sg12
F0.3289524743501498
sg13
F0.02119181307734106
sg14
F0.0
sg15
F0.0038975501113585748
sg16
F5.7069078827022545e-05
sg17
F0.0
sg18
F0.0025682217547305284
sg19
F0.0017715374879274963
sg20
F0.04734848484848485
sg21
F0.031198686371100164
sg22
F0.02366085891084001
sg23
F0.01080570422010686
sg24
F0.0017786313660528416
sg25
F0.0005935996458859907
ssS'WESTFAHL RICHARD K'
p78
(dp79
g3
F0.0
sg4
F0.0031846247188520088
sg5
F0.009907934714217113
sg6
F0.0
sg7
I00
sg8
F0.9996141877593137
sg9
S'dick.westfahl@enron.com'
p80
sg11
F0.005279901491136131
sg12
F0.3289524743501498
sg13
F0.0
sg14
F0.0
sg15
F0.0
sg16
F0.009401281145742733
sg17
F0.0
sg18
F0.0
sg19
F0.0009872729073028238
sg20
F0.0
sg21
F0.0
sg22
F0.022489221491688933
sg23
F0.002387037648606144
sg24
F0.002459399783311046
sg25
F0.0
ssS'WALTERS GARETH W'
p81
(dp82
g3
F0.0
sg4
F0.004850727163227023
sg5
F0.006453433088872665
sg6
F0.0
sg7
I00
sg8
F1.0
sg9
I0
sg11
F0.0
sg12
F0.3289524743501498
sg13
F0.0
sg14
F0.0
sg15
F0.0
sg16
F0.0
sg17
F0.0
sg18
F0.0
sg19
F0.002472472878167638
sg20
F0.0
sg21
F0.0
sg22
F0.019593416944721352
sg23
F0.0
sg24
F0.00028207093895335933
sg25
F0.003304836350572869
ssS'WALLS JR ROBERT H'
p83
(dp84
g3
F0.044293352696547626
sg4
F0.0031846247188520088
sg5
F0.009729526944348619
sg6
F0.09274647410860913
sg7
I00
sg8
F1.0
sg9
S'rob.walls@enron.com'
p85
sg11
F0.011144466477094645
sg12
F0.3289524743501498
sg13
F0.03894222061220794
sg14
F0.0
sg15
F0.010161469933184855
sg16
F4.687398671624028e-08
sg17
F0.0
sg18
F0.008731953966083797
sg19
F0.013676310460423658
sg20
F0.032196969696969696
sg21
F0.0
sg22
F0.03127242470289416
sg23
F0.013372076759827068
sg24
F0.005804639784584415
sg25
F0.01394177647194673
ssS'KITCHEN LOUISE'
p86
(dp87
g3
F0.548221004686778
sg4
F0.0031846247188520088
sg5
F0.0011029191255039446
sg6
F0.19769684663725284
sg7
I00
sg8
F1.0
sg9
S'louise.kitchen@enron.com'
p88
sg11
F0.0
sg12
F0.3289524743501498
sg13
F0.6645535229125159
sg14
F0.0
sg15
F0.12026726057906459
sg16
F0.002201319601161434
sg17
F0.0
sg18
F0.03184594975865855
sg19
F0.0013605594213412621
sg20
F0.4753787878787879
sg21
F0.3185550082101806
sg22
F0.023099865896858456
sg23
F0.010164757050278441
sg24
F0.011201327091974633
sg25
F0.00025994662629424823
ssS'CHAN RONNIE'
p89
(dp90
g3
F0.0
sg4
F0.0031846247188520088
sg5
F0.0
sg6
F0.0
sg7
I00
sg8
F0.9964711040385218
sg9
I0
sg11
F0.0
sg12
F0.32754319678854904
sg13
F0.0
sg14
F0.0
sg15
F0.0
sg16
F0.0
sg17
F0.07063482245836125
sg18
F0.0
sg19
F0.00010146734394590363
sg20
F0.0
sg21
F0.0
sg22
F0.01983761151410947
sg23
F0.0
sg24
F0.0
sg25
F0.0
ssS'BELFER ROBERT'
p91
(dp92
g3
F0.0
sg4
F0.0
sg5
F0.0
sg6
F0.0
sg7
I00
sg8
F1.0
sg9
I0
sg11
F0.0
sg12
F0.33086680816172287
sg13
F0.0
sg14
F0.0
sg15
F0.0
sg16
F0.0
sg17
F0.002348916745381
sg18
F0.0
sg19
F0.0
sg20
F0.0
sg21
F0.0
sg22
F0.019593416944721352
sg23
F0.0
sg24
F0.00033076617369545057
sg25
F1.0536816309772777e-05
ssS'SHANKMAN JEFFREY A'
p93
(dp94
g3
F0.21262129513499242
sg4
F0.0031846247188520088
sg5
F0.03418762766947878
sg6
F0.1336732799885568
sg7
I00
sg8
F1.0
sg9
S'jeffrey.shankman@enron.com'
p95
sg11
F0.011426215380394613
sg12
F0.3289524743501498
sg13
F0.3133490309726499
sg14
F0.0
sg15
F0.18659521158129175
sg16
F2.7913459089521087e-05
sg17
F0.0
sg18
F0.020545774037844227
sg19
F0.004869659302146761
sg20
F0.17803030303030304
sg21
F0.13628899835796388
sg22
F0.02433389856426909
sg23
F0.011388083887387275
sg24
F0.009805852034543542
sg25
F0.0046249663206784615
ssS'WODRASKA JOHN'
p96
(dp97
g3
F0.0
sg4
F0.0031846247188520088
sg5
F0.0
sg6
F0.0
sg7
I00
sg8
F1.0
sg9
S'john.wodraska@enron.com'
p98
sg11
F0.0
sg12
F0.3289524743501498
sg13
F0.0
sg14
F0.0
sg15
F0.0
sg16
F0.004443255511812491
sg17
F0.0
sg18
F0.0
sg19
F0.00010146734394590363
sg20
F0.0
sg21
F0.0
sg22
F0.019593416944721352
sg23
F0.0
sg24
F0.0006117818878800449
sg25
F0.0
ssS'BERGSIEKER RICHARD P'
p99
(dp100
g3
F0.025282196844676218
sg4
F0.0031846247188520088
sg5
F0.011303297411100784
sg6
F0.0403374337752109
sg7
I00
sg8
F0.9826451294366131
sg9
S'rick.bergsieker@enron.com'
p101
sg11
F0.00371481528928529
sg12
F0.3289524743501498
sg13
F0.042202499547183484
sg14
F0.0
sg15
F0.004106347438752784
sg16
F0.010015002253818467
sg17
F0.0
sg18
F0.0025682217547305284
sg19
F0.001618539102025259
sg20
F0.007575757575757576
sg21
F0.0
sg22
F0.024552906337036398
sg23
F0.007037162540809548
sg24
F0.0019970209423554102
sg25
F0.0
ssS'URQUHART JOHN A'
p102
(dp103
g3
F0.0
sg4
F0.0031846247188520088
sg5
F0.043676667052516445
sg6
F0.0
sg7
I00
sg8
F0.9986901674428696
sg9
I0
sg11
F0.0
sg12
F0.3289524743501498
sg13
F0.0
sg14
F0.0
sg15
F0.0
sg16
F0.0
sg17
F0.026217772111458065
sg18
F0.0
sg19
F0.00010146734394590363
sg20
F0.0
sg21
F0.0
sg22
F0.019593416944721352
sg23
F0.0
sg24
F0.0007378699532927507
sg25
F0.0
ssS'BIBI PHILIPPE A'
p104
(dp105
g3
F0.10607960921512971
sg4
F0.0031846247188520088
sg5
F0.0073653374714767236
sg6
F0.08389549447297202
sg7
I00
sg8
F1.0
sg9
S'philippe.bibi@enron.com'
p106
sg11
F0.007619668369319537
sg12
F0.3289524743501498
sg13
F0.2419851476181851
sg14
F0.0
sg15
F0.0027839643652561247
sg16
F0.009976846828631447
sg17
F0.0
sg18
F0.010272887018922114
sg19
F0.0043444789840012465
sg20
F0.043560606060606064
sg21
F0.013136288998357963
sg22
F0.022437704411862384
sg23
F0.007999669265867964
sg24
F0.006607556116054523
sg25
F0.00470142158812435
ssS'RIEKER PAULA H'
p107
(dp108
g3
F0.08766255198362928
sg4
F0.009854564869034561
sg5
F0.006355251511022124
sg6
F0.26237927224776364
sg7
I01
sg8
F0.996427664438089
sg9
S'paula.rieker@enron.com'
p109
sg11
F0.0
sg12
F0.3289524743501498
sg13
F0.22785727223329108
sg14
F0.0
sg15
F0.005707126948775056
sg16
F4.5702137048334274e-05
sg17
F0.0
sg18
F0.0071910209132454795
sg19
F0.0045172332755523525
sg20
F0.06628787878787878
sg21
F0.07881773399014778
sg22
F0.021727290802157267
sg23
F0.009331892712573727
sg24
F0.003546781478133363
sg25
F0.005245114894599761
ssS'WHALEY DAVID A'
p110
(dp111
g3
F0.0
sg4
F0.0031846247188520088
sg5
F0.0
sg6
F0.0
sg7
I00
sg8
F1.0
sg9
I0
sg11
F0.0
sg12
F0.3289524743501498
sg13
F0.0
sg14
F0.0
sg15
F0.0
sg16
F0.0
sg17
F0.0
sg18
F0.0
sg19
F0.0003286383973932017
sg20
F0.0
sg21
F0.0
sg22
F0.019593416944721352
sg23
F0.0
sg24
F0.0
sg25
F0.0003166433584377927
ssS'BECK SALLY W'
p112
(dp113
g3
F0.48287015644597003
sg4
F0.0031846247188520088
sg5
F0.007100400023074581
sg6
F0.20263868665682158
sg7
I00
sg8
F1.0
sg9
S'sally.beck@enron.com'
p114
sg11
F0.0
sg12
F0.3289524743501498
sg13
F0.4779931171889151
sg14
F0.0
sg15
F0.30226893095768376
sg16
F1.3265338240696e-05
sg17
F0.0
sg18
F0.0071910209132454795
sg19
F0.0003914821979016425
sg20
F0.2727272727272727
sg21
F0.6338259441707718
sg22
F0.020541510259455678
sg23
F0.008662672867282556
sg24
F0.003127169896689784
sg25
F0.0
ssS'HAUG DAVID L'
p115
(dp116
g3
F0.03782427883028583
sg4
F0.0031846247188520088
sg5
F9.073200287744608e-05
sg6
F0.08282120059758251
sg7
I00
sg8
F1.0
sg9
S'david.haug@enron.com'
p117
sg11
F0.0
sg12
F0.3289524743501498
sg13
F0.08531063213186017
sg14
F0.0
sg15
F0.0013223830734966592
sg16
F0.0
sg17
F0.0
sg18
F0.0
sg19
F0.00520394257275565
sg20
F0.007575757575757576
sg21
F0.011494252873563218
sg22
F0.036274019979524216
sg23
F0.0
sg24
F1.5328188537106245e-06
sg25
F0.0
ssS'ECHOLS JOHN B'
p118
(dp119
g3
F0.0
sg4
F0.0031846247188520088
sg5
F0.004112547414634556
sg6
F0.0
sg7
I00
sg8
F1.0
sg9
S'john.echols@enron.com'
p120
sg11
F0.04605699097529678
sg12
F0.3289524743501498
sg13
F0.0
sg14
F0.0
sg15
F0.0
sg16
F0.0012603243178329105
sg17
F0.0
sg18
F0.0020545774037844227
sg19
F0.0024232545543449225
sg20
F0.0
sg21
F0.0
sg22
F0.022659036772489854
sg23
F0.006824574489681016
sg24
F0.00868809471052127
sg25
F0.0019291451225927304
ssS'MENDELSOHN JOHN'
p121
(dp122
g3
F0.0
sg4
F0.0031846247188520088
sg5
F2.8270181949183204e-05
sg6
F0.0
sg7
I00
sg8
F0.9962937018545173
sg9
I0
sg11
F0.0
sg12
F0.3289524743501498
sg13
F0.0
sg14
F0.0
sg15
F0.0
sg16
F0.0
sg17
F0.07418572673767998
sg18
F0.0
sg19
F0.00010146734394590363
sg20
F0.0
sg21
F0.0
sg22
F0.019593416944721352
sg23
F0.0
sg24
F4.775940849456261e-07
sg25
F0.0
ssS'HICKERSON GARY J'
p123
(dp124
g3
F0.0871344643210773
sg4
F0.0031846247188520088
sg5
F0.01888161632091088
sg6
F0.13567093074876985
sg7
I00
sg8
F1.0
sg9
S'gary.hickerson@enron.com'
p125
sg11
F0.0014266333357569798
sg12
F0.3289524743501498
sg13
F0.1630139467487774
sg14
F0.0
sg15
F0.0018791759465478842
sg16
F4.537401914132059e-05
sg17
F0.0
sg18
F0.017463907932167594
sg19
F0.0011165227846090997
sg20
F0.07575757575757576
sg21
F0.0016420361247947454
sg22
F0.022911754830698572
sg23
F0.007930878663450647
sg24
F0.00671792875448287
sg25
F0.0
ssS'CLINE KENNETH W'
p126
(dp127
g3
F0.0
sg4
F0.0031846247188520088
sg5
F0.0
sg6
F0.0
sg7
I00
sg8
F1.0
sg9
I0
sg11
F0.0
sg12
F0.30843554647798266
sg13
F0.0
sg14
F0.0
sg15
F0.0
sg16
F0.0
sg17
F0.0
sg18
F0.0
sg19
F0.0005375884536444899
sg20
F0.0
sg21
F0.0
sg22
F0.024574248912309166
sg23
F0.0
sg24
F0.0
sg25
F0.0
ssS'LEWIS RICHARD'
p128
(dp129
g3
F0.06284243184368606
sg4
F0.0031846247188520088
sg5
F0.0
sg6
F0.04557552589121477
sg7
I00
sg8
F1.0
sg9
S'richard.lewis@enron.com'
p130
sg11
F0.0
sg12
F0.3289524743501498
sg13
F0.1338525629414961
sg14
F0.0
sg15
F0.001809576837416481
sg16
F0.0
sg17
F0.0
sg18
F0.0
sg19
F0.0020585952843691063
sg20
F0.01893939393939394
sg21
F0.0
sg22
F0.019593416944721352
sg23
F0.0
sg24
F0.0
sg25
F0.002727951270833066
ssS'HAYES ROBERT E'
p131
(dp132
g3
F0.03326952274077497
sg4
F0.0034319690836010905
sg5
F0.0
sg6
F0.13821043200498617
sg7
I00
sg8
F1.0
sg9
S'robert.hayes@enron.com'
p133
sg11
F0.0
sg12
F0.3289524743501498
sg13
F0.009056330374932078
sg14
F0.0
sg15
F0.0008351893095768374
sg16
F0.0
sg17
F0.0
sg18
F0.0
sg19
F0.0004499122736535859
sg20
F0.030303030303030304
sg21
F0.0
sg22
F0.02073252517970625
sg23
F0.0
sg24
F2.5690043988190067e-05
sg25
F0.0
ssS'MCCARTY DANNY J'
p134
(dp135
g3
F0.09459370255462407
sg4
F0.0031846247188520088
sg5
F0.0
sg6
F0.07302593062399375
sg7
I00
sg8
F1.0
sg9
S'danny.mccarty@enron.com'
p136
sg11
F0.0
sg12
F0.3289524743501498
sg13
F0.0920123166093099
sg14
F0.0
sg15
F0.01496380846325167
sg16
F0.0
sg17
F0.0
sg18
F0.0
sg19
F0.001847928523911172
sg20
F0.04734848484848485
sg21
F0.003284072249589491
sg22
F0.020304755875807698
sg23
F0.0
sg24
F0.0
sg25
F0.002131018975892021
ssS'KOPPER MICHAEL J'
p137
(dp138
g3
F0.0
sg4
F0.0031846247188520088
sg5
F0.022565335637735193
sg6
F0.0
sg7
I01
sg8
F1.0
sg9
S'michael.kopper@enron.com'
p139
sg11
F0.012420590542074091
sg12
F0.3289524743501498
sg13
F0.0
sg14
F0.0
sg15
F0.0
sg16
F0.021269118346480743
sg17
F0.0
sg18
F0.00821830961513769
sg19
F0.002368234874885539
sg20
F0.0
sg21
F0.0
sg22
F0.027003751666641103
sg23
F0.008399605920096026
sg24
F0.00855994460037694
sg25
F0.0
ssS'LEFF DANIEL P'
p140
(dp141
g3
F0.18628292296521223
sg4
F0.0031846247188520088
sg5
F0.0
sg6
F0.1251439171594541
sg7
I00
sg8
F1.0
sg9
S'dan.leff@enron.com'
p142
sg11
F0.028593237267900813
sg12
F0.3289524743501498
sg13
F0.4839702952363702
sg14
F0.0
sg15
F0.004384743875278397
sg16
F7.22562505230844e-05
sg17
F0.0
sg18
F0.010272887018922114
sg19
F0.0009311187302913267
sg20
F0.1268939393939394
sg21
F0.022988505747126436
sg22
F0.022305646757178495
sg23
F0.010251035519505168
sg24
F0.008597429282071052
sg25
F0.0
ssS'LAVORATO JOHN J'
p143
(dp144
g3
F0.47917354280810615
sg4
F0.0031846247188520088
sg5
F0.009462297319031678
sg6
F0.4251718772652372
sg7
I00
sg8
F1.0
sg9
S'john.lavorato@enron.com'
p145
sg11
F0.04194763241889316
sg12
F0.3289524743501498
sg13
F0.7176236189096178
sg14
F0.0
sg15
F0.17991369710467706
sg16
F3.637421369180246e-05
sg17
F0.0
sg18
F0.08218309615137691
sg19
F0.01199216150097791
sg20
F1.0
sg21
F0.6748768472906403
sg22
F0.027177659425746
sg23
F0.012705403327690157
sg24
F0.03364378293432741
sg25
F0.013340202845742293
ssS'BERBERIAN DAVID'
p146
(dp147
g3
F0.0
sg4
F0.0031846247188520088
sg5
F0.00227154732256545
sg6
F0.0
sg7
I00
sg8
F1.0
sg9
S'david.berberian@enron.com'
p148
sg11
F0.0
sg12
F0.3289524743501498
sg13
F0.0
sg14
F0.0
sg15
F0.0
sg16
F0.0
sg17
F0.0
sg18
F0.0
sg19
F0.005839806589200443
sg20
F0.0
sg21
F0.0
sg22
F0.026132505164177252
sg23
F0.008110400790826052
sg24
F0.0007372826416477499
sg25
F0.005210338589445863
ssS'DETMERING TIMOTHY J'
p149
(dp150
g3
F0.0
sg4
F0.03037998382894172
sg5
F0.00998147539023357
sg6
F0.0
sg7
I00
sg8
F0.9723057900664851
sg9
S'timothy.detmering@enron.com'
p151
sg11
F0.008566374361711267
sg12
F0.3152735383434207
sg13
F0.0
sg14
F0.0
sg15
F0.0
sg16
F2.5897877660722757e-05
sg17
F0.0
sg18
F0.0043659769830418985
sg19
F0.004768014764871217
sg20
F0.0
sg21
F0.0
sg22
F0.021963653993026192
sg23
F0.007882646602528761
sg24
F0.003887173754230116
sg25
F0.006504487368650646
ssS'WAKEHAM JOHN'
p152
(dp153
g3
F0.0
sg4
F0.0031846247188520088
sg5
F0.01982217291494992
sg6
F0.0
sg7
I00
sg8
F1.0
sg9
I0
sg11
F0.0
sg12
F0.3289524743501498
sg13
F0.0
sg14
F0.0
sg15
F0.0
sg16
F0.0
sg17
F0.07815278612987901
sg18
F0.0
sg19
F0.00010146734394590363
sg20
F0.0
sg21
F0.0
sg22
F0.019593416944721352
sg23
F0.0
sg24
F0.0006875773599557399
sg25
F0.0
ssS'POWERS WILLIAM'
p154
(dp155
g3
F0.04310515545580566
sg4
F0.0031846247188520088
sg5
F0.0
sg6
F0.0
sg7
I00
sg8
F0.9993748412766655
sg9
S'ken.powers@enron.com'
p156
sg11
F0.0
sg12
F0.3289524743501498
sg13
F0.0021735192899836986
sg14
F0.0
sg15
F0.001809576837416481
sg16
F0.0
sg17
F0.012513255112379756
sg18
F0.0
sg19
F0.00010146734394590363
sg20
F0.0
sg21
F0.0
sg22
F0.019593416944721352
sg23
F0.0
sg24
F0.0
sg25
F0.0
ssS'GOLD JOSEPH'
p157
(dp158
g3
F0.0
sg4
F0.0031846247188520088
sg5
F0.0
sg6
F0.0
sg7
I00
sg8
F1.0
sg9
S'joe.gold@enron.com'
p159
sg11
F0.00628179902496867
sg12
F0.3289524743501498
sg13
F0.0
sg14
F0.0
sg15
F0.0
sg16
F0.019201647414387533
sg17
F0.0
sg18
F0.007704665264191585
sg19
F0.002121036372764728
sg20
F0.0
sg21
F0.0
sg22
F0.022911754830698572
sg23
F0.010218606199040609
sg24
F0.00692825409012139
sg25
F0.001400145622971222
ssS'BANNANTINE JAMES M'
p160
(dp161
g3
F0.03736220212555284
sg4
F0.0031846247188520088
sg5
F0.01075432104000651
sg6
F0.2921582703433132
sg7
I00
sg8
F0.99981766799292
sg9
S'james.bannantine@enron.com'
p162
sg11
F0.0
sg12
F0.3046299760718042
sg13
F0.08422387248686831
sg14
F0.0
sg15
F0.0020183741648106906
sg16
F0.020261819808942098
sg17
F0.0
sg18
F0.0
sg19
F0.012167842934286192
sg20
F0.07386363636363637
sg21
F0.0
sg22
F0.032815371775812625
sg23
F1.7862339332096052e-05
sg24
F0.00295655586381708
sg25
F0.012978268818721854
ssS'DUNCAN JOHN H'
p163
(dp164
g3
F0.0
sg4
F0.0031846247188520088
sg5
F0.0
sg6
F0.0
sg7
I00
sg8
F0.9991069161095222
sg9
I0
sg11
F0.0
sg12
F0.3289524743501498
sg13
F0.0
sg14
F0.0
sg15
F0.0
sg16
F0.0
sg17
F0.0732862024558872
sg18
F0.0
sg19
F0.0009569429321773615
sg20
F0.0
sg21
F0.0
sg22
F0.019593416944721352
sg23
F0.0
sg24
F0.0002500656812878815
sg25
F0.001192408360169872
ssS'SHAPIRO RICHARD S'
p165
(dp166
g3
F1.0
sg4
F0.0031846247188520088
sg5
F0.026315528085088663
sg6
F0.03786133060806354
sg7
I00
sg8
F1.0
sg9
S'richard.shapiro@enron.com'
p167
sg11
F0.0
sg12
F0.3289524743501498
sg13
F0.8199601521463503
sg14
F0.0
sg15
F0.08456291759465479
sg16
F1.65230803174747e-05
sg17
F0.0
sg18
F0.006677376562299373
sg19
F0.002372765961457772
sg20
F0.14015151515151514
sg21
F0.10673234811165845
sg22
F0.022445844230841987
sg23
F0.010076156851411062
sg24
F0.003412693711797818
sg25
F0.00194967026340437
ssS'SHERRIFF JOHN R'
p168
(dp169
g3
F0.21037692256914647
sg4
F0.0031846247188520088
sg5
F0.0
sg6
F0.06932650443434005
sg7
I00
sg8
F1.0
sg9
S'john.sherriff@enron.com'
p170
sg11
F0.011426215380394613
sg12
F0.3289524743501498
sg13
F0.38090925556964317
sg14
F0.0
sg15
F0.006403118040089087
sg16
F0.04340967098000311
sg17
F0.0
sg18
F0.01540933052838317
sg19
F0.007301918499334319
sg20
F0.05303030303030303
sg21
F0.03776683087027915
sg22
F0.0293237655804655
sg23
F0.016056632827706804
sg24
F0.013990240978001677
sg25
F0.005887652198457808
ssS'SHELBY REX'
p171
(dp172
g3
F0.01485246550927454
sg4
F0.0031846247188520088
sg5
F0.004371181376521003
sg6
F0.4558588396528095
sg7
I01
sg8
F0.9998511407771352
sg9
S'rex.shelby@enron.com'
p173
sg11
F0.0
sg12
F0.3289524743501498
sg13
F0.016482521282376383
sg14
F0.0
sg15
F0.0027143652561247215
sg16
F0.036873984138171015
sg17
F0.0
sg18
F0.0020545774037844227
sg19
F0.005839806589200443
sg20
F0.02462121212121212
sg21
F0.022988505747126436
sg22
F0.026132505164177252
sg23
F0.007932975709577685
sg24
F0.006466510965616663
sg25
F0.005210338589445863
ssS'LEMAISTRE CHARLES'
p174
(dp175
g3
F0.0
sg4
F0.0031846247188520088
sg5
F0.0
sg6
F0.0
sg7
I00
sg8
F0.9991069161095222
sg9
I0
sg11
F0.0
sg12
F0.3289524743501498
sg13
F0.0
sg14
F0.0
sg15
F0.0
sg16
F0.0
sg17
F0.08043663394867563
sg18
F0.0
sg19
F0.0010515871823260727
sg20
F0.0
sg21
F0.0
sg22
F0.019593416944721352
sg23
F0.0
sg24
F0.0002823355518923157
sg25
F0.001324328658857341
ssS'DEFFNER JOSEPH M'
p176
(dp177
g3
F0.04713182388276454
sg4
F0.0031846247188520088
sg5
F0.007951179687950675
sg6
F0.6731181287146392
sg7
I00
sg8
F1.0
sg9
S'joseph.deffner@enron.com'
p178
sg11
F0.006911287614127782
sg12
F0.3289524743501498
sg13
F0.09998188733925013
sg14
F0.0
sg15
F0.00515033407572383
sg16
F0.0005988854912800439
sg17
F0.0
sg18
F0.006163732211353268
sg19
F0.0004678456193404393
sg20
F0.2178030303030303
sg21
F0.006568144499178982
sg22
F0.02066041781841281
sg23
F0.007718665084844801
sg24
F0.003900294683617879
sg25
F5.574088092274926e-05
ssS'KISHKILL JOSEPH G'
p179
(dp180
g3
F0.0
sg4
F0.0031846247188520088
sg5
F0.022221700115258296
sg6
F0.0
sg7
I00
sg8
F0.9981766084824893
sg9
S'joe.kishkill@enron.com'
p181
sg11
F0.0
sg12
F0.3289524743501498
sg13
F0.0
sg14
F0.0
sg15
F0.0
sg16
F0.010906568918154714
sg17
F0.0
sg18
F0.0
sg19
F0.0024817168470658915
sg20
F0.0
sg21
F0.0
sg22
F0.027374737834071957
sg23
F0.0065250339187849235
sg24
F0.002274690270958325
sg25
F0.0
ssS'WHALLEY LAWRENCE G'
p182
(dp183
g3
F0.3973199551125487
sg4
F0.0031846247188520088
sg5
F0.011047910699843635
sg6
F0.14236200011464165
sg7
I00
sg8
F1.0
sg9
S'greg.whalley@enron.com'
p184
sg11
F0.016659395727226668
sg12
F0.3289524743501498
sg13
F0.7100163013946749
sg14
F0.0
sg15
F0.03869710467706013
sg16
F0.007055144362621474
sg17
F0.0
sg18
F0.03081866105676634
sg19
F0.014090850803299287
sg20
F0.3522727272727273
sg21
F0.03940886699507389
sg22
F0.04062888331711676
sg23
F0.019111729456783792
sg24
F0.015094470772266569
sg25
F0.010530272898731092
ssS'MCCONNELL MICHAEL S'
p185
(dp186
g3
F0.2197504785794442
sg4
F0.0031846247188520088
sg5
F0.015541723541306365
sg6
F0.20997923235018778
sg7
I00
sg8
F1.0
sg9
S'mike.mcconnell@enron.com'
p187
sg11
F0.011426215380394613
sg12
F0.3289524743501498
sg13
F0.39648614381452635
sg14
F0.0
sg15
F0.19084075723830735
sg16
F1.2655976413384877e-05
sg17
F0.0
sg18
F0.011300175720814324
sg19
F0.007238168021269017
sg20
F0.17424242424242425
sg21
F0.3185550082101806
sg22
F0.030714343065941358
sg23
F0.013669670073605195
sg24
F0.0067810744372816265
sg25
F0.005205892919002836
ssS'PIRO JIM'
p188
(dp189
g3
F0.0038286355535018814
sg4
F0.0031846247188520088
sg5
F0.0
sg6
F0.06023360043460546
sg7
I00
sg8
F1.0
sg9
S'jim.piro@enron.com'
p190
sg11
F0.0
sg12
F0.3289524743501498
sg13
F0.0005433798224959246
sg14
F0.0
sg15
F0.0011135857461024498
sg16
F0.0
sg17
F0.0
sg18
F0.0
sg19
F0.00021032387985901965
sg20
F0.0
sg21
F0.0016420361247947454
sg22
F0.019949282006654055
sg23
F0.0
sg24
F0.0
sg25
F0.0
ssS'DELAINEY DAVID W'
p191
(dp192
g3
F0.20417189253416068
sg4
F0.0031846247188520088
sg5
F0.016460504454654818
sg6
F0.4882616588296888
sg7
I01
sg8
F1.0
sg9
S'david.delainey@enron.com'
p193
sg11
F0.02668857263874593
sg12
F0.3289524743501498
sg13
F0.37982249592465134
sg14
F0.0
sg15
F0.21359966592427618
sg16
F3.8928845967837554e-05
sg17
F0.0
sg18
F0.03081866105676634
sg19
F0.008418648393030012
sg20
F0.125
sg21
F1.0
sg22
F0.029547377391324785
sg23
F0.013674350980138764
sg24
F0.01532166679625709
sg25
F0.0073488696578180935
ssS'SULLIVAN-SHAKLOVITZ COLLEEN'
p194
(dp195
g3
F0.0
sg4
F0.008839057952588924
sg5
F0.0
sg6
F0.0
sg7
I00
sg8
F1.0
sg9
I0
sg11
F0.011426215380394613
sg12
F0.3289524743501498
sg13
F0.0
sg14
F0.0
sg15
F0.0
sg16
F3.796792924015463e-06
sg17
F0.0
sg18
F0.0010272887018922114
sg19
F0.0032365811422426956
sg20
F0.0
sg21
F0.0
sg22
F0.019593416944721352
sg23
F0.006095626277021516
sg24
F0.0032249088807764946
sg25
F0.004369891969566724
ssS'WROBEL BRUCE'
p196
(dp197
g3
F0.0
sg4
F0.0031846247188520088
sg5
F0.0
sg6
F0.0
sg7
I00
sg8
F1.0
sg9
I0
sg11
F0.0
sg12
F0.3289524743501498
sg13
F0.0
sg14
F0.0
sg15
F0.0
sg16
F0.0
sg17
F0.0
sg18
F0.0
sg19
F0.0004216349796974644
sg20
F0.0
sg21
F0.0
sg22
F0.019593416944721352
sg23
F0.0
sg24
F0.0
sg25
F0.0004462670481518071
ssS'LINDHOLM TOD A'
p198
(dp199
g3
F0.0
sg4
F0.009525134860312728
sg5
F0.011026708063381747
sg6
F0.0
sg7
I00
sg8
F1.0
sg9
S'tod.lindholm@enron.com'
p200
sg11
F0.0036066167857138737
sg12
F0.3289524743501498
sg13
F0.0
sg14
F0.0
sg15
F0.0
sg16
F6.163929253185597e-05
sg17
F0.0
sg18
F0.0020545774037844227
sg19
F0.007152859788501489
sg20
F0.0
sg21
F0.0
sg22
F0.023466579035471925
sg23
F0.008854664929663388
sg24
F0.002826482469384727
sg25
F0.008177214174824548
ssS'MEYER JEROME J'
p201
(dp202
g3
F0.0
sg4
F0.0031846247188520088
sg5
F0.0004108727119776559
sg6
F0.0
sg7
I00
sg8
F0.9986301522054296
sg9
I0
sg11
F0.0
sg12
F0.3289524743501498
sg13
F0.0
sg14
F0.0
sg15
F0.0
sg16
F0.0
sg17
F0.027419044602246524
sg18
F0.0
sg19
F0.00010146734394590363
sg20
F0.0
sg21
F0.0
sg22
F0.019593416944721352
sg23
F0.0
sg24
F6.941249167013796e-06
sg25
F0.0
ssS'LAY KENNETH L'
p203
(dp204
g3
F0.28206482276057826
sg4
F0.00948896995131035
sg5
F0.01906938381318147
sg6
F0.1437834332955098
sg7
I01
sg8
F0.9892829933142668
sg9
S'kenneth.lay@enron.com'
p205
sg11
F0.07419325959182825
sg12
F0.3289524743501498
sg13
F0.4366962506792248
sg14
F0.9714030384271671
sg15
F0.0025055679287305124
sg16
F0.2428008997649246
sg17
F0.0
sg18
F0.0719102091324548
sg19
F0.11311417175589689
sg20
F0.23295454545454544
sg21
F0.026272577996715927
sg22
F0.13064472654943918
sg23
F0.04015547499985864
sg24
F0.3341861119931991
sg25
F0.11017431133806341
ssS'BUTTS ROBERT H'
p206
(dp207
g3
F0.0
sg4
F0.0031846247188520088
sg5
F0.001797448730687932
sg6
F0.0
sg7
I00
sg8
F0.9973207483285667
sg9
S'bob.butts@enron.com'
p208
sg11
F0.0036066167857138737
sg12
F0.3289524743501498
sg13
F0.0
sg14
F0.0
sg15
F0.0
sg16
F0.003530923671360948
sg17
F0.0
sg18
F0.007704665264191585
sg19
F0.0010624972287653607
sg20
F0.0
sg21
F0.0
sg22
F0.02273513881389251
sg23
F0.009793055624260862
sg24
F0.0041033786602927644
sg25
F0.0
ssS'OLSON CINDY K'
p209
(dp210
g3
F0.07815697405769358
sg4
F0.0055992227154403286
sg5
F0.01218502146432666
sg6
F0.12621765786863118
sg7
I00
sg8
F1.0
sg9
S'cindy.olson@enron.com'
p211
sg11
F0.0020609238775507847
sg12
F0.3289524743501498
sg13
F0.15504437601883717
sg14
F0.0
sg15
F0.003619153674832962
sg16
F2.278075754409278e-05
sg17
F0.0
sg18
F0.007704665264191585
sg19
F0.006100181831652695
sg20
F0.03787878787878788
sg21
F0.024630541871921183
sg22
F0.026888628145527536
sg23
F0.01232306688202831
sg24
F0.0042646473386384245
sg25
F0.00525087566235999
ssS'MCDONALD REBECCA'
p212
(dp213
g3
F0.05901379629018417
sg4
F0.0031846247188520088
sg5
F0.0
sg6
F0.2702874903735879
sg7
I00
sg8
F1.0
sg9
S'rebecca.mcdonald@enron.com'
p214
sg11
F0.0
sg12
F0.3289524743501498
sg13
F0.13041115739902193
sg14
F0.0
sg15
F0.0009047884187082405
sg16
F0.0
sg17
F0.0
sg18
F0.0
sg19
F0.003993659203433968
sg20
F0.10227272727272728
sg21
F0.0016420361247947454
sg22
F0.026620330082599078
sg23
F0.0
sg24
F0.0
sg25
F0.0024290841790585186
ssS'CUMBERLAND MICHAEL S'
p215
(dp216
g3
F0.0
sg4
F0.0031846247188520088
sg5
F0.004268033415355064
sg6
F0.0
sg7
I00
sg8
F1.0
sg9
I0
sg11
F0.005667540663264658
sg12
F0.3289524743501498
sg13
F0.0
sg14
F0.0
sg15
F0.0
sg16
F1.671057626433966e-05
sg17
F0.0
sg18
F0.0033386882811496867
sg19
F0.0005799813824579395
sg20
F0.0
sg21
F0.0
sg22
F0.021157736684664818
sg23
F0.006923959497201735
sg24
F0.002607263557407624
sg25
F0.0
ssS'GAHN ROBERT S'
p217
(dp218
g3
F0.0
sg4
F0.005456489389016854
sg5
F0.009566018324426316
sg6
F0.0
sg7
I00
sg8
F0.9999627762634449
sg9
I0
sg11
F0.0
sg12
F0.3289524743501498
sg13
F0.0
sg14
F0.0
sg15
F0.0
sg16
F0.0017940315305840224
sg17
F0.0
sg18
F0.005237836904337818
sg19
F0.0008346496189685266
sg20
F0.0
sg21
F0.0
sg22
F0.021364090875617255
sg23
F0.007190172013578823
sg24
F0.0029061761418294374
sg25
F0.0002669872082729244
ssS'MCCLELLAN GEORGE'
p219
(dp220
g3
F0.11512311043633243
sg4
F0.0031846247188520088
sg5
F0.043697105630006734
sg6
F0.12926876434599097
sg7
I00
sg8
F0.9955345805476111
sg9
S'george.mcclellan@enron.com'
p221
sg11
F0.0
sg12
F0.3289524743501498
sg13
F0.2660749864155044
sg14
F0.0
sg15
F0.003410356347438753
sg16
F0.0012090441763653438
sg17
F0.0
sg18
F0.009245598317029901
sg19
F0.002282696520910686
sg20
F0.09848484848484848
sg21
F0.0
sg22
F0.022911754830698572
sg23
F0.009864093061814292
sg24
F0.004255631136791546
sg25
F0.0016254763218331815
ssS'HERMANN ROBERT J'
p222
(dp223
g3
F0.0
sg4
F0.0031846247188520088
sg5
F0.009236899922409812
sg6
F0.0
sg7
I00
sg8
F0.989997460426649
sg9
S'robert.hermann@enron.com'
p224
sg11
F0.003091385816326177
sg12
F0.3289524743501498
sg13
F0.0
sg14
F0.0
sg15
F0.0
sg16
F0.00976012495104891
sg17
F0.0
sg18
F0.0071910209132454795
sg19
F0.0016389807688719572
sg20
F0.0
sg21
F0.0
sg22
F0.023209181709790642
sg23
F0.009836007622612882
sg24
F0.00418688985842998
sg25
F0.000601416456037259
ssS'SCRIMSHAW MATTHEW'
p225
(dp226
g3
F0.0
sg4
F0.0031846247188520088
sg5
F0.0
sg6
F0.0
sg7
I00
sg8
F1.0
sg9
S'matthew.scrimshaw@enron.com'
p227
sg11
F0.0
sg12
F0.3289524743501498
sg13
F0.0
sg14
F0.0
sg15
F0.0
sg16
F0.0
sg17
F0.0
sg18
F0.0
sg19
F0.0018493690826690279
sg20
F0.0
sg21
F0.0
sg22
F0.019593416944721352
sg23
F0.0
sg24
F0.0
sg25
F0.002436320421857559
ssS'GATHMANN WILLIAM D'
p228
(dp229
g3
F0.0
sg4
F0.0031846247188520088
sg5
F0.0
sg6
F0.0
sg7
I00
sg8
F1.0
sg9
I0
sg11
F0.0
sg12
F0.32580834398251074
sg13
F0.0
sg14
F0.0
sg15
F0.0
sg16
F0.0
sg17
F0.0
sg18
F0.0
sg19
F0.004578153262767555
sg20
F0.0
sg21
F0.0
sg22
F0.021579570390434993
sg23
F0.0
sg24
F0.0
sg25
F0.005625299906339411
ssS'HAEDICKE MARK E'
p230
(dp231
g3
F0.2646379298963628
sg4
F0.07021793023876048
sg5
F0.014549401951941454
sg6
F0.18053882859676534
sg7
I00
sg8
F0.9666170957476311
sg9
S'mark.haedicke@enron.com'
p232
sg11
F0.02026601251294054
sg12
F0.31463285106749517
sg13
F0.33454084404999096
sg14
F0.0
sg15
F0.13509187082405344
sg16
F0.0012276765860850492
sg17
F0.0
sg18
F0.01181382007176043
sg19
F0.0019495569527022034
sg20
F0.3409090909090909
sg21
F0.10016420361247948
sg22
F0.023536707864055904
sg23
F0.014009953254969466
sg24
F0.012453152820410086
sg25
F0.0019525987606009675
ssS'BOWEN JR RAYMOND M'
p233
(dp234
g3
F0.1226483596276982
sg4
F0.0031846247188520088
sg5
F0.012589208660302819
sg6
F0.3665142689575197
sg7
I01
sg8
F0.9999702424447693
sg9
S'raymond.bowen@enron.com'
p235
sg11
F0.02007943707430587
sg12
F0.3289524743501498
sg13
F0.288534685745336
sg14
F0.0
sg15
F0.0018791759465478842
sg16
F3.799136623351275e-05
sg17
F0.0
sg18
F0.013868397475544853
sg19
F0.0006814993530694547
sg20
F0.26515151515151514
sg21
F0.024630541871921183
sg22
F0.021489611097128058
sg23
F0.010432841929268955
sg24
F0.00861472915970209
sg25
F0.0
ssS'GILLIS JOHN'
p236
(dp237
g3
F0.0
sg4
F0.0031846247188520088
sg5
F0.0
sg6
F0.0
sg7
I00
sg8
F1.0
sg9
I0
sg11
F0.0
sg12
F0.3289524743501498
sg13
F0.0
sg14
F0.0
sg15
F0.0
sg16
F0.0
sg17
F0.0
sg18
F0.0
sg19
F0.00029854544711128435
sg20
F0.0
sg21
F0.0
sg22
F0.020163941521223385
sg23
F0.0
sg24
F0.0
sg25
F3.1443656098844e-05
ssS'FITZGERALD JAY L'
p238
(dp239
g3
F0.061786256518582085
sg4
F0.0031846247188520088
sg5
F0.004559521913020291
sg6
F0.04213821206874709
sg7
I00
sg8
F1.0
sg9
S'jay.fitzgerald@enron.com'
p240
sg11
F0.011467310202512975
sg12
F0.3289524743501498
sg13
F0.13095453722151784
sg14
F0.0
sg15
F0.0011135857461024498
sg16
F0.006689246022314502
sg17
F0.0
sg18
F0.0035955104566227397
sg19
F0.0038322752007368005
sg20
F0.001893939393939394
sg21
F0.013136288998357963
sg22
F0.026791176005914054
sg23
F0.007457882420046653
sg24
F0.004565725231377796
sg25
F0.00213129482557319
ssS'MORAN MICHAEL P'
p241
(dp242
g3
F0.04435936365436662
sg4
F0.0031846247188520088
sg5
F0.0
sg6
F0.0
sg7
I00
sg8
F1.0
sg9
S'michael.moran@enron.com'
p243
sg11
F0.0
sg12
F0.3289524743501498
sg13
F0.023003079152327476
sg14
F0.0
sg15
F0.0013223830734966592
sg16
F0.0
sg17
F0.0
sg18
F0.0
sg19
F0.0006103596830369401
sg20
F0.0
sg21
F0.0
sg22
F0.020809138780896904
sg23
F0.0
sg24
F0.0
sg25
F0.00019097458333867926
ssS'REDMOND BRIAN L'
p244
(dp245
g3
F0.11030431051554558
sg4
F0.0031846247188520088
sg5
F0.0028058155584564327
sg6
F0.5960324880215028
sg7
I00
sg8
F1.0
sg9
S'brian.redmond@enron.com'
p246
sg11
F0.0
sg12
F0.3289524743501498
sg13
F0.19253758377105598
sg14
F0.0
sg15
F0.01538140311804009
sg16
F0.0
sg17
F0.0
sg18
F0.0
sg19
F0.018258776194616487
sg20
F0.38636363636363635
sg21
F0.08045977011494253
sg22
F0.022461800382464665
sg23
F0.003626391909685915
sg24
F0.0003599026398641942
sg25
F0.024085651326003002
ssS'BAZELIDES PHILIP J'
p247
(dp248
g3
F0.0
sg4
F0.024457731423726717
sg5
F0.0
sg6
F0.0
sg7
I00
sg8
F1.0
sg9
I0
sg11
F0.001932116135203861
sg12
F0.3289524743501498
sg13
F0.0
sg14
F0.0
sg15
F0.0
sg16
F2.0483932194997003e-05
sg17
F0.0
sg18
F0.0
sg19
F0.003782580526014922
sg20
F0.0
sg21
F0.0
sg22
F0.019593416944721352
sg23
F0.0030264120338392843
sg24
F0.0027756477422215616
sg25
F0.005130935579476784
ssS'BELDEN TIMOTHY N'
p249
(dp250
g3
F0.5274935639316126
sg4
F0.06979805688802325
sg5
F0.0033150608630275304
sg6
F0.17671365677947257
sg7
I01
sg8
F0.9166061840486572
sg9
S'tim.belden@enron.com'
p251
sg11
F0.0
sg12
F0.3289524743501498
sg13
F1.0
sg14
F0.0
sg15
F0.03368596881959911
sg16
F0.004938127626569197
sg17
F0.0
sg18
F0.05393264657645408
sg19
F0.0026574350997673464
sg20
F0.4318181818181818
sg21
F0.17733990147783252
sg22
F0.02077879877170583
sg23
F0.0080136745382164
sg24
F0.017753688821347334
sg25
F0.003057235601288154
ssS'DURAN WILLIAM D'
p252
(dp253
g3
F0.05967390586837415
sg4
F0.0031846247188520088
sg5
F0.0049253151456735735
sg6
F0.5303976212942442
sg7
I00
sg8
F1.0
sg9
S'w.duran@enron.com'
p254
sg11
F0.022777701660989233
sg12
F0.3289524743501498
sg13
F0.10849483789168629
sg14
F0.0
sg15
F0.0008351893095768374
sg16
F3.674920558553238e-05
sg17
F0.0
sg18
F0.007704665264191585
sg19
F0.0038775492470659615
sg20
F0.20075757575757575
sg21
F0.0049261083743842365
sg22
F0.021015560678291866
sg23
F0.00788983647496432
sg24
F0.006754932615104975
sg25
F0.004656948845921915
ssS'THORN TERENCE H'
p255
(dp256
g3
F0.017558914779853455
sg4
F0.0036999436026264425
sg5
F0.008814375311115263
sg6
F0.0
sg7
I00
sg8
F1.0
sg9
S'terence.thorn@enron.com'
p257
sg11
F0.0041218477551015695
sg12
F0.3289524743501498
sg13
F0.013222242347400832
sg14
F0.0
sg15
F0.002853563474387528
sg16
F0.009998901039381438
sg17
F0.0
sg18
F0.0
sg19
F0.011188237665611445
sg20
F0.0
sg21
F0.0
sg22
F0.022341696676356188
sg23
F0.008316772598078006
sg24
F0.0029412470372023364
sg25
F0.014281559128058403
ssS'FASTOW ANDREW S'
p258
(dp259
g3
F0.0
sg4
F0.0031846247188520088
sg5
F0.010681735437704553
sg6
F0.0
sg7
I01
sg8
F0.9504854643273537
sg9
S'andrew.fastow@enron.com'
p260
sg11
F0.03577877202241428
sg12
F0.3289524743501498
sg13
F0.0
sg14
F0.0
sg15
F0.0
sg16
F0.006502921925117447
sg17
F0.0
sg18
F0.013354753124598747
sg19
F0.004230789902734301
sg20
F0.0
sg21
F0.0
sg22
F0.03309266727265939
sg23
F0.016502929180243323
sg24
F0.007822484474440866
sg25
F0.0
ssS'FOY JOE'
p261
(dp262
g3
F0.0037626245956828832
sg4
F0.008831663409339295
sg5
F0.0
sg6
F0.0
sg7
I00
sg8
F1.0
sg9
S'tracy.foy@enron.com'
p263
sg11
F0.0
sg12
F0.3289524743501498
sg13
F0.0003622532149972831
sg14
F0.0
sg15
F0.0009047884187082405
sg16
F0.0
sg17
F0.0
sg18
F0.0
sg19
F0.0008917818111111558
sg20
F0.0
sg21
F0.0
sg22
F0.019593416944721352
sg23
F0.0
sg24
F0.0005865210331708938
sg25
F0.0011015832488677332
ssS'CALGER CHRISTOPHER F'
p264
(dp265
g3
F0.17149646841375668
sg4
F0.0031846247188520088
sg5
F0.006841766061188134
sg6
F0.3641255145164187
sg7
I01
sg8
F0.9906226191499835
sg9
S'christopher.calger@enron.com'
p266
sg11
F0.007734729749403198
sg12
F0.3289524743501498
sg13
F0.3963050172070277
sg14
F0.0
sg15
F0.01002227171492205
sg16
F1.139037877204639e-05
sg17
F0.0
sg18
F0.012841108773652642
sg19
F0.0003914821979016425
sg20
F0.3768939393939394
sg21
F0.041050903119868636
sg22
F0.020541510259455678
sg23
F0.008994418075129598
sg24
F0.005289990207223717
sg25
F0.0
ssS'RICE KENNETH D'
p267
(dp268
g3
F0.059739916826193146
sg4
F0.0031846247188520088
sg5
F0.008968142179149671
sg6
F0.22213995219869662
sg7
I01
sg8
F0.8748115726953676
sg9
S'ken.rice@enron.com'
p269
sg11
F0.03332536580162272
sg12
F0.3289524743501498
sg13
F0.1564933888788263
sg14
F0.0
sg15
F0.0012527839643652562
sg16
F0.004097700481740367
sg17
F0.0
sg18
F0.0179775522831137
sg19
F0.0519766302525016
sg20
F0.07954545454545454
sg21
F0.006568144499178982
sg22
F0.040269189079712144
sg23
F0.01575166240523177
sg24
F0.0016297898148769493
sg25
F0.06349089375296699
ssS'KAMINSKI WINCENTY J'
p270
(dp271
g3
F0.3041124826721236
sg4
F0.0031846247188520088
sg5
F0.015965967285287014
sg6
F0.04979945842519581
sg7
I00
sg8
F1.0
sg9
S'vince.kaminski@enron.com'
p272
sg11
F0.006666388029758422
sg12
F0.3289524743501498
sg13
F0.10559681217170802
sg14
F0.0
sg15
F1.0
sg16
F0.00010942732198906294
sg17
F0.0
sg18
F0.004109154807568845
sg19
F0.0023475354722866364
sg20
F0.07765151515151515
sg21
F0.28078817733990147
sg22
F0.020541510259455678
sg23
F0.010301776546329048
sg24
F0.003507157304018178
sg25
F0.0027264533429132293
ssS'LOCKHART EUGENE E'
p273
(dp274
g3
F0.0
sg4
F0.0031846247188520088
sg5
F0.0
sg6
F0.0
sg7
I00
sg8
F1.0
sg9
I0
sg11
F0.0
sg12
F0.3289524743501498
sg13
F0.0
sg14
F0.0
sg15
F0.0
sg16
F0.0
sg17
F0.0
sg18
F0.0
sg19
F0.00010146734394590363
sg20
F0.0
sg21
F0.0
sg22
F0.019593416944721352
sg23
F0.0
sg24
F0.0
sg25
F0.0
ssS'COX DAVID'
p275
(dp276
g3
F0.006733117697537792
sg4
F0.0031846247188520088
sg5
F0.005321861751933738
sg6
F0.1320677461380979
sg7
I00
sg8
F0.9985264115807116
sg9
S'chip.cox@enron.com'
p277
sg11
F0.0
sg12
F0.3289524743501498
sg13
F0.01285998913240355
sg14
F0.0
sg15
F0.002296770601336303
sg16
F1.157787471891135e-05
sg17
F0.0
sg18
F0.00821830961513769
sg19
F0.001242023987448048
sg20
F0.0
sg21
F0.006568144499178982
sg22
F0.022437704411862384
sg23
F0.011769222020976527
sg24
F0.0035541809594629597
sg25
F0.00037705123105939107
ssS'OVERDYKE JR JERE C'
p278
(dp279
g3
F0.0
sg4
F0.0031846247188520088
sg5
F0.0035975716677764625
sg6
F0.0
sg7
I00
sg8
F1.0
sg9
S'jere.overdyke@enron.com'
p280
sg11
F0.002799476558309884
sg12
F0.3289524743501498
sg13
F0.0
sg14
F0.0
sg15
F0.0
sg16
F4.124910831029145e-06
sg17
F0.0
sg18
F0.0
sg19
F0.016917790883170306
sg20
F0.0
sg21
F0.0
sg22
F0.03494785388970766
sg23
F0.003555279577627948
sg24
F0.0008060594168669805
sg25
F0.016892835606420242
ssS'PEREIRA PAULO V. FERRAZ'
p281
(dp282
g3
F0.0
sg4
F0.0031846247188520088
sg5
F0.005337333946108629
sg6
F0.0
sg7
I00
sg8
F0.996383010243565
sg9
I0
sg11
F0.0
sg12
F0.3289524743501498
sg13
F0.0
sg14
F0.0
sg15
F0.0
sg16
F0.0
sg17
F0.07239811886448287
sg18
F0.0
sg19
F0.00010146734394590363
sg20
F0.0
sg21
F0.0
sg22
F0.019593416944721352
sg23
F0.0
sg24
F9.016847244291004e-05
sg25
F0.0
ssS'STABLER FRANK'
p283
(dp284
g3
F0.0
sg4
F0.0031846247188520088
sg5
F0.0031544174642487255
sg6
F0.0
sg7
I00
sg8
F1.0
sg9
S'frank.stabler@enron.com'
p285
sg11
F0.0
sg12
F0.3289524743501498
sg13
F0.0
sg14
F0.0
sg15
F0.0
sg16
F0.008345233662019197
sg17
F0.0
sg18
F0.005136443509461057
sg19
F0.0012790758030394795
sg20
F0.0
sg21
F0.0
sg22
F0.02344316012929493
sg23
F0.008968691812821108
sg24
F0.0035886903590873417
sg25
F0.0
ssS'SKILLING JEFFREY K'
p286
(dp287
g3
F0.23942174400950558
sg4
F0.0031846247188520088
sg5
F0.005603608497711071
sg6
F0.14081922329182728
sg7
I01
sg8
F1.0
sg9
S'jeff.skilling@enron.com'
p288
sg11
F0.03956973844897507
sg12
F0.3289524743501498
sg13
F0.36986053251222606
sg14
F0.0
sg15
F0.007516703786191537
sg16
F0.0005184731670683338
sg17
F0.0
sg18
F0.057528167305963836
sg19
F0.06014854038582545
sg20
F0.16666666666666666
sg21
F0.04926108374384237
sg22
F0.07107793749535317
sg23
F0.04161355866143898
sg24
F0.02801901218150505
sg25
F0.06174542281982525
ssS'BLAKE JR. NORMAN P'
p289
(dp290
g3
F0.0
sg4
F0.0031846247188520088
sg5
F0.00024430785616895483
sg6
F0.0
sg7
I00
sg8
F0.9959352537042351
sg9
I0
sg11
F0.0
sg12
F0.3289524743501498
sg13
F0.0
sg14
F0.0
sg15
F0.0
sg16
F0.0
sg17
F0.0813604696975439
sg18
F0.0
sg19
F0.00010146734394590363
sg20
F0.0
sg21
F0.0
sg22
F0.019593416944721352
sg23
F0.0
sg24
F4.127316450307134e-06
sg25
F0.0
ssS'SHERRICK JEFFREY B'
p291
(dp292
g3
F0.040464717143045746
sg4
F0.0031846247188520088
sg5
F0.0
sg6
F0.39822151509900594
sg7
I00
sg8
F1.0
sg9
S'jeffrey.sherrick@enron.com'
p293
sg11
F0.0
sg12
F0.3289524743501498
sg13
F0.10559681217170802
sg14
F0.0
sg15
F0.001739977728285078
sg16
F0.0
sg17
F0.0
sg18
F0.0
sg19
F0.004318364829393982
sg20
F0.07386363636363637
sg21
F0.029556650246305417
sg22
F0.022647722273649445
sg23
F0.0
sg24
F0.0
sg25
F0.004575476963344068
ssS'PRENTICE JAMES'
p294
(dp295
g3
F0.0
sg4
F0.020718640239190483
sg5
F0.0
sg6
F0.0
sg7
I00
sg8
F1.0
sg9
S'james.prentice@enron.com'
p296
sg11
F0.0
sg12
F0.3289524743501498
sg13
F0.0
sg14
F0.0
sg15
F0.0
sg16
F0.0
sg17
F0.0
sg18
F0.0
sg19
F0.0026213866126398528
sg20
F0.0
sg21
F0.0
sg22
F0.021164274117837903
sg23
F0.0
sg24
F0.0018211436935871232
sg25
F0.002842634172001899
ssS'GRAY RODNEY'
p297
(dp298
g3
F0.0
sg4
F0.006092264760937524
sg5
F0.0
sg6
F0.0
sg7
I00
sg8
F1.0
sg9
I0
sg11
F0.007535252927295057
sg12
F0.3289524743501498
sg13
F0.0
sg14
F0.0
sg15
F0.0
sg16
F0.015956678498989012
sg17
F0.0
sg18
F0.0
sg19
F0.00010146734394590363
sg20
F0.0
sg21
F0.0
sg22
F0.019593416944721352
sg23
F0.00024771357375642637
sg24
F0.0037002505287539312
sg25
F0.0
ssS'PICKERING MARK R'
p299
(dp300
g3
F0.05927784012146016
sg4
F0.0031846247188520088
sg5
F0.006046189657010107
sg6
F0.0323326476944307
sg7
I00
sg8
F1.0
sg9
S'mark.pickering@enron.com'
p301
sg11
F0.0
sg12
F0.3289524743501498
sg13
F0.13186017025901106
sg14
F0.004766160262138814
sg15
F0.004663140311804009
sg16
F0.0
sg17
F0.0
sg18
F0.003081866105676634
sg19
F0.0001677376492314168
sg20
F0.013257575757575758
sg21
F0.0
sg22
F0.019593416944721352
sg23
F0.02452933578423103
sg24
F0.004474830686846286
sg25
F9.237115253845858e-05
ssS'THE TRAVEL AGENCY IN THE PARK'
p302
(dp303
g3
F0.0
sg4
F0.0031846247188520088
sg5
F0.0
sg6
F0.0
sg7
I00
sg8
F1.0
sg9
I0
sg11
F0.0
sg12
F0.3289524743501498
sg13
F0.0
sg14
F0.0
sg15
F0.0
sg16
F0.00848644154700187
sg17
F0.0
sg18
F0.0
sg19
F0.00010146734394590363
sg20
F0.0
sg21
F0.0
sg22
F0.019593416944721352
sg23
F0.0
sg24
F0.0011684791066383206
sg25
F0.0
ssS'NOLES JAMES L'
p304
(dp305
g3
F0.0
sg4
F0.02724488390815654
sg5
F0.0
sg6
F0.0
sg7
I00
sg8
F1.0
sg9
I0
sg11
F0.0
sg12
F0.3248472479448904
sg13
F0.0
sg14
F0.0
sg15
F0.0
sg16
F0.0
sg17
F0.0
sg18
F0.0
sg19
F0.0009499357414143089
sg20
F0.0
sg21
F0.0
sg22
F0.023078500752771514
sg23
F0.0
sg24
F0.002498982006594445
sg25
F0.0
ssS'KEAN STEVEN J'
p306
(dp307
g3
F0.8419037560234999
sg4
F0.0031846247188520088
sg5
F0.00801364150887894
sg6
F0.12038076921789287
sg7
I00
sg8
F1.0
sg9
S'steven.kean@enron.com'
p308
sg11
F0.006182771632652354
sg12
F0.3289524743501498
sg13
F0.6591197246875566
sg14
F0.0
sg15
F0.4704203786191537
sg16
F2.8850938823845894e-05
sg17
F0.0
sg18
F0.010272887018922114
sg19
F0.014262302608816932
sg20
F0.26515151515151514
sg21
F0.6354679802955665
sg22
F0.05067514269076341
sg23
F0.015141347087759022
sg24
F0.005639230881840206
sg25
F0.006485829024518546
ssS'TOTAL'
p309
(dp310
g3
F0.0
sg4
F1.0
sg5
F1.0
sg6
F0.0
sg7
I00
sg8
F0.0
sg9
I0
sg11
F1.0
sg12
F0.0
sg13
F0.0
sg14
F1.0
sg15
F0.0
sg16
F1.0
sg17
F1.0
sg18
F1.0
sg19
F1.0
sg20
F0.0
sg21
F0.0
sg22
F1.0
sg23
F1.0
sg24
F1.0
sg25
F1.0
ssS'FOWLER PEGGY'
p311
(dp312
g3
F0.03412766519242194
sg4
F0.0031846247188520088
sg5
F0.0
sg6
F0.0
sg7
I00
sg8
F1.0
sg9
S'kulvinder.fowler@enron.com'
p313
sg11
F0.0
sg12
F0.3289524743501498
sg13
F0.0018112660749864155
sg14
F0.0
sg15
F0.0025055679287305124
sg16
F0.0
sg17
F0.0
sg18
F0.0
sg19
F0.0044386721965836
sg20
F0.0
sg21
F0.0
sg22
F0.023807541157110174
sg23
F0.0
sg24
F0.0
sg25
F0.004248656034692909
ssS'WASAFF GEORGE'
p314
(dp315
g3
F0.02640438312759918
sg4
F0.029012676856968653
sg5
F0.0
sg6
F0.30060768961084494
sg7
I00
sg8
F0.9791616735834823
sg9
S'george.wasaff@enron.com'
p316
sg11
F0.0041218477551015695
sg12
F0.3289524743501498
sg13
F0.061039666727042204
sg14
F0.0
sg15
F0.0020879732739420937
sg16
F3.33977155353212e-05
sg17
F0.0
sg18
F0.0033386882811496867
sg19
F0.004833741984107443
sg20
F0.041666666666666664
sg21
F0.011494252873563218
sg22
F0.022513573242185215
sg23
F0.009736135800812673
sg24
F0.0033379792803873713
sg25
F0.005351034757059827
ssS'WHITE JR THOMAS E'
p317
(dp318
g3
F0.0
sg4
F0.0031846247188520088
sg5
F0.015539622379134466
sg6
F0.0
sg7
I00
sg8
F1.0
sg9
S'thomas.white@enron.com'
p319
sg11
F0.0
sg12
F0.3289524743501498
sg13
F0.0
sg14
F0.0
sg15
F0.0
sg16
F0.025439989121485162
sg17
F0.0
sg18
F0.004622799158514951
sg19
F0.0349513060303603
sg20
F0.0
sg21
F0.0
sg22
F0.1237640969421145
sg23
F0.011891112827110643
sg24
F0.006242151463252274
sg25
F0.00416035526872891
ssS'CHRISTODOULOU DIOMEDES'
p320
(dp321
g3
F0.0
sg4
F0.0031846247188520088
sg5
F0.0
sg6
F0.0
sg7
I00
sg8
F1.0
sg9
S'diomedes.christodoulou@enron.com'
p322
sg11
F0.0
sg12
F0.3289524743501498
sg13
F0.0
sg14
F0.0
sg15
F0.0
sg16
F0.0
sg17
F0.0
sg18
F0.0
sg19
F0.014087969685783575
sg20
F0.0
sg21
F0.0
sg22
F0.026745699845348705
sg23
F0.0
sg24
F0.0
sg25
F0.0164456287448198
ssS'ALLEN PHILLIP K'
p323
(dp324
g3
F0.19156379959073205
sg4
F0.09234532417553329
sg5
F0.002648992454535626
sg6
F0.09794311956092015
sg7
I00
sg8
F0.8899343765529613
sg9
S'phillip.allen@enron.com'
p325
sg11
F0.00628179902496867
sg12
F0.32348090863062245
sg13
F0.2548451367505887
sg14
F0.0
sg15
F0.15277004454342985
sg16
F3.5624229904342617e-06
sg17
F0.0
sg18
F0.04288930330399982
sg19
F0.004081507974330366
sg20
F0.08901515151515152
sg21
F0.10673234811165845
sg22
F0.020541510259455678
sg23
F0.007562659831894042
sg24
F0.014471236307309012
sg25
F0.0055475969002193965
ssS'SHARP VICTORIA T'
p326
(dp327
g3
F0.2070103637203776
sg4
F0.00900919458634925
sg5
F0.022222082144744096
sg6
F0.040867540637171185
sg7
I00
sg8
F1.0
sg9
S'vicki.sharp@enron.com'
p328
sg11
F0.008700355022990842
sg12
F0.3289524743501498
sg13
F0.4486506067741351
sg14
F0.0
sg15
F0.009465478841870824
sg16
F5.627222105284646e-05
sg17
F0.0
sg18
F0.006163732211353268
sg19
F0.0012385790729743896
sg20
F0.045454545454545456
sg21
F0.009852216748768473
sg22
F0.02119627669633997
sg23
F0.009292385861430412
sg24
F0.005087380597646717
sg25
F0.0009015569469213893
ssS'JAEDICKE ROBERT'
p329
(dp330
g3
F0.0
sg4
F0.0031846247188520088
sg5
F0.0
sg6
F0.0
sg7
I00
sg8
F0.9991069161095222
sg9
I0
sg11
F0.0
sg12
F0.3270381405385767
sg13
F0.0
sg14
F0.0
sg15
F0.0
sg16
F0.0
sg17
F0.0777609424840742
sg18
F0.0
sg19
F0.0010950156565724858
sg20
F0.0
sg21
F0.0
sg22
F0.0199251258525473
sg23
F0.0
sg24
F0.0002702601663121364
sg25
F0.001384861626101795
ssS'WINOKUR JR. HERBERT S'
p331
(dp332
g3
F0.0
sg4
F0.0031846247188520088
sg5
F0.0002699038317175396
sg6
F0.0
sg7
I00
sg8
F0.9991069161095222
sg9
I0
sg11
F0.0
sg12
F0.3289524743501498
sg13
F0.0
sg14
F0.0
sg15
F0.0
sg16
F0.0
sg17
F0.07763867010554752
sg18
F0.0
sg19
F0.00010146734394590363
sg20
F0.0
sg21
F0.0
sg22
F0.019593416944721352
sg23
F0.0
sg24
F0.00027426808424120715
sg25
F0.0
ssS'BROWN MICHAEL'
p333
(dp334
g3
F0.09809228331903096
sg4
F0.0031846247188520088
sg5
F0.009414734648049606
sg6
F0.040865756417977246
sg7
I00
sg8
F1.0
sg9
S'michael.brown@enron.com'
p335
sg11
F0.0
sg12
F0.3289524743501498
sg13
F0.1378373483064662
sg14
F0.0
sg15
F0.002853563474387528
sg16
F0.0
sg17
F0.0
sg18
F0.0
sg19
F0.00010146734394590363
sg20
F0.02462121212121212
sg21
F0.0016420361247947454
sg22
F0.019593416944721352
sg23
F0.0
sg24
F0.00015905173823513527
sg25
F0.0
ssS'BADUM JAMES P'
p336
(dp337
g3
F0.0
sg4
F0.0087454455206094
sg5
F0.0006658773937490044
sg6
F0.0
sg7
I00
sg8
F1.0
sg9
I0
sg11
F0.0
sg12
F0.3289524743501498
sg13
F0.0
sg14
F0.0
sg15
F0.0
sg16
F0.0
sg17
F0.0
sg18
F0.0
sg19
F0.0006947589370355331
sg20
F0.0
sg21
F0.0
sg22
F0.019593416944721352
sg23
F0.0
sg24
F0.0005888154209708691
sg25
F0.0008269620610461759
ssS'HUGHES JAMES A'
p338
(dp339
g3
F0.047461878671859525
sg4
F0.0031846247188520088
sg5
F0.0
sg6
F0.23677484367388069
sg7
I00
sg8
F1.0
sg9
S'james.hughes@enron.com'
p340
sg11
F0.0
sg12
F0.3289524743501498
sg13
F0.10668357181669988
sg14
F0.0
sg15
F0.002366369710467706
sg16
F0.0
sg17
F0.0
sg18
F0.0
sg19
F0.0026751291193985818
sg20
F0.06628787878787878
sg21
F0.008210180623973728
sg22
F0.02232746327754897
sg23
F0.0
sg24
F0.0
sg25
F0.0024215945394593344
ssS'REYNOLDS LAWRENCE'
p341
(dp342
g3
F0.0
sg4
F0.004780510071865018
sg5
F0.0016062429730451457
sg6
F0.0
sg7
I00
sg8
F0.9928553288761779
sg9
I0
sg11
F0.0032201935586731014
sg12
F0.3228627975818082
sg13
F0.0
sg14
F0.0
sg15
F0.0
sg16
F0.004735491381994891
sg17
F0.0
sg18
F0.0010272887018922114
sg19
F0.009816933885100168
sg20
F0.0
sg21
F0.0
sg22
F0.021109161073619254
sg23
F0.002860932626064583
sg24
F0.001272965720668418
sg25
F0.01334558191452509
ssS'DIMICHELE RICHARD G'
p343
(dp344
g3
F0.0
sg4
F0.0031846247188520088
sg5
F0.006840619972730735
sg6
F0.0
sg7
I00
sg8
F1.0
sg9
S'richard.dimichele@enron.com'
p345
sg11
F0.014320576874026934
sg12
F0.3289524743501498
sg13
F0.0
sg14
F0.0
sg15
F0.0
sg16
F0.008781583604360677
sg17
F0.0
sg18
F0.010272887018922114
sg19
F0.019242447705024673
sg20
F0.0
sg21
F0.0
sg22
F0.020541510259455678
sg23
F0.00984068852914645
sg24
F0.007641992634176146
sg25
F0.02627550005773598
ssS'BHATNAGAR SANJAY'
p346
(dp347
g3
F0.03452373093933593
sg4
F0.0031846247188520088
sg5
F0.0
sg6
F0.008074794261160877
sg7
I00
sg8
F1.0
sg9
S'sanjay.bhatnagar@enron.com'
p348
sg11
F0.0
sg12
F1.0
sg13
F0.08386161927187104
sg14
F0.0
sg15
F0.0020183741648106906
sg16
F0.003231117652323875
sg17
F0.09857870873217844
sg18
F0.0
sS'total_stock_value'
p349
F0.00010146734394590363
sg20
F0.0
sg21
F0.0016420361247947454
sg22
F0.0
sg23
F0.0
sg24
F0.04987724783246103
sg25
F0.008354043443117229
ssS'CARTER REBECCA C'
p350
(dp351
g3
F0.02059541883952736
sg4
F0.0031846247188520088
sg5
F0.0
sg6
F0.49071043289843713
sg7
I00
sg8
F0.9942916935589111
sg9
S'rebecca.carter@enron.com'
p352
sg11
F0.0015456929081630886
sg12
F0.31561074902798486
sg13
F0.035500815069733745
sg14
F0.0
sg15
F0.0010439866369710469
sg16
F1.2655976413384877e-05
sg17
F0.0
sg18
F0.003081866105676634
sg19
F0.00010146734394590363
sg20
F0.054924242424242424
sg21
F0.011494252873563218
sg22
F0.02190522333312362
sg23
F0.009804027669175545
sg24
F0.0015410702596241783
sg25
F0.0
ssS'BUCHANAN HAROLD G'
p353
(dp354
g3
F0.07181992210706978
sg4
F0.0031846247188520088
sg5
F0.0001146088457399319
sg6
F0.0
sg7
I00
sg8
F1.0
sg9
S'john.buchanan@enron.com'
p355
sg11
F0.00628179902496867
sg12
F0.3289524743501498
sg13
F0.004165911972468755
sg14
F0.0
sg15
F0.00869988864142539
sg16
F2.847594693011597e-05
sg17
F0.0
sg18
F0.005136443509461057
sg19
F0.0024360584983204973
sg20
F0.0
sg21
F0.0
sg22
F0.021015560678291866
sg23
F0.00928755516588777
sg24
F0.003403299952464867
sg25
F0.0026477207118204794
ssS'YEAP SOON'
p356
(dp357
g3
F0.0
sg4
F0.0031846247188520088
sg5
F0.010524339289555047
sg6
F0.0
sg7
I00
sg8
F1.0
sg9
I0
sg11
F0.0
sg12
F0.3289524743501498
sg13
F0.0
sg14
F0.0
sg15
F0.0
sg16
F0.0
sg17
F0.0
sg18
F0.0
sg19
F0.0005450443807618265
sg20
F0.0
sg21
F0.0
sg22
F0.019593416944721352
sg23
F0.0
sg24
F0.0001777973060692511
sg25
F0.0006182817772417598
ssS'MURRAY JULIA H'
p358
(dp359
g3
F0.14469601953924352
sg4
F0.0031846247188520088
sg5
F0.010998628896175465
sg6
F0.02590287153244991
sg7
I00
sg8
F1.0
sg9
S'julia.murray@enron.com'
p360
sg11
F0.002576154846938481
sg12
F0.3289524743501498
sg13
F0.07154500996196342
sg14
F0.0
sg15
F0.00313195991091314
sg16
F7.734207808179646e-06
sg17
F0.0
sg18
F0.004109154807568845
sg19
F0.00147635181044316
sg20
F0.020833333333333332
sg21
F0.003284072249589491
sg22
F0.021075307852354726
sg23
F0.008586055789141114
sg24
F0.002620939528569783
sg25
F0.0012845549838980768
ssS'GARLAND C KEVIN'
p361
(dp362
g3
F0.013796290184170572
sg4
F0.0031846247188520088
sg5
F0.009246068630069005
sg6
F0.6518561185373507
sg7
I00
sg8
F1.0
sg9
S'kevin.garland@enron.com'
p363
sg11
F0.007734729749403198
sg12
F0.3289524743501498
sg13
F0.0322405361347582
sg14
F0.0
sg15
F0.003062360801781737
sg16
F0.0014252973140807183
sg17
F0.0
sg18
F0.008731953966083797
sg19
F0.002163705447026968
sg20
F0.01893939393939394
sg21
F0.04433497536945813
sg22
F0.02154868120676563
sg23
F0.00868574037467998
sg24
F0.0050549751935857435
sg25
F0.0020407936772687033
ssS'DODSON KEITH'
p364
(dp365
g3
F0.01161792857614364
sg4
F0.0031846247188520088
sg5
F0.005379739219032403
sg6
F0.30497222956889714
sg7
I00
sg8
F1.0
sg9
S'keith.dodson@enron.com'
p366
sg11
F0.0
sg12
F0.3289524743501498
sg13
F0.020648433254845135
sg14
F0.0
sg15
F0.0009743875278396437
sg16
F1.814023285918499e-05
sg17
F0.0
sg18
F0.000719102091324548
sg19
F0.00010146734394590363
sg20
F0.01893939393939394
sg21
F0.0049261083743842365
sg22
F0.019593416944721352
sg23
F0.00827595509310529
sg24
F0.0010324454671053283
sg25
F0.0
ssS'YEAGER F SCOTT'
p367
(dp368
g3
F0.0
sg4
F0.0031846247188520088
sg5
F0.010304672335220177
sg6
F0.0
sg7
I01
sg8
F1.0
sg9
S'scott.yeager@enron.com'
p369
sg11
F0.0
sg12
F0.3289524743501498
sg13
F0.0
sg14
F0.0
sg15
F0.0
sg16
F0.003467503167333875
sg17
F0.0
sg18
F0.0
sg19
F0.027450815941225056
sg20
F0.0
sg21
F0.0
sg22
F0.04649699316817169
sg23
F0.005931757101094362
sg24
F0.0011626834378777643
sg25
F0.02665013279275349
ssS'HIRKO JOSEPH'
p370
(dp371
g3
F0.0
sg4
F0.0035033668163222797
sg5
F0.01489494762184735
sg6
F0.0
sg7
I01
sg8
F1.0
sg9
S'joe.hirko@enron.com'
p372
sg11
F0.0
sg12
F0.3289524743501498
sg13
F0.0
sg14
F0.0
sg15
F0.0
sg16
F6.693605303079113e-05
sg17
F0.0
sg18
F0.0
sg19
F0.07090070526719185
sg20
F0.0
sg21
F0.0
sg22
F0.019593416944721352
sg23
F0.0
sg24
F0.00029395593229697246
sg25
F0.09868382494450931
ssS'DIETRICH JANET R'
p373
(dp374
g3
F0.16978018351046273
sg4
F0.0031846247188520088
sg5
F0.0006637762315771056
sg6
F0.5396107673090309
sg7
I00
sg8
F1.0
sg9
S'janet.dietrich@enron.com'
p375
sg11
F0.011467310202512975
sg12
F0.3289524743501498
sg13
F0.34450280746241624
sg14
F0.0
sg15
F0.004384743875278397
sg16
F1.1085697858390827e-05
sg17
F0.0
sg18
F0.006163732211353268
sg19
F0.004393428066011391
sg20
F0.5776515151515151
sg21
F0.022988505747126436
sg22
F0.021963653993026192
sg23
F0.009365557792363149
sg24
F0.004551549077221268
sg25
F0.004971770313442219
ssS'DERRICK JR. JAMES V'
p376
(dp377
g3
F0.14396989900323454
sg4
F0.0031846247188520088
sg5
F0.009765437716013797
sg6
F0.12116895155388593
sg7
I00
sg8
F0.954131211385062
sg9
S'james.derrick@enron.com'
p378
sg11
F0.009974871567345799
sg12
F0.2513519035536631
sg13
F0.2537583771055968
sg14
F0.0
sg15
F0.06326559020044543
sg16
F0.0001753555843054549
sg17
F0.0
sg18
F0.00821830961513769
sg19
F0.020425572169457833
sg20
F0.12121212121212122
sg21
F0.03284072249589491
sg22
F0.033039765972230024
sg23
F0.018438090835724934
sg24
F0.001778008557550176
sg25
F0.028328841687943446
ssS'FREVERT MARK A'
p379
(dp380
g3
F0.2161858868572183
sg4
F0.2028680512731415
sg5
F0.016615799440632427
sg6
F0.33537834805093425
sg7
I00
sg8
F0.8797190686735429
sg9
S'mark.frevert@enron.com'
p381
sg11
F0.03332536580162272
sg12
F0.3289524743501498
sg13
F0.5395761637384532
sg14
F0.023830801310694073
sg15
F0.0014615812917594655
sg16
F0.1740811040436337
sg17
F0.0
sg18
F0.020545774037844227
sg19
F0.03375021600327126
sg20
F0.4583333333333333
sg21
F0.009852216748768473
sg22
F0.051104499334592365
sg23
F0.039728988243772176
sg24
F0.055673691069911914
sg25
F0.033466076904325064
ssS'PAI LOU L'
p382
(dp383
g3
F0.0
sg4
F0.0031846247188520088
sg5
F0.006121449465712663
sg6
F0.0
sg7
I00
sg8
F1.0
sg9
S'lou.pai@enron.com'
p384
sg11
F0.0
sg12
F0.3289524743501498
sg13
F0.0
sg14
F0.0
sg15
F0.0
sg16
F0.0428769715579664
sg17
F0.0
sg18
F0.010272887018922114
sg19
F0.054911575419818635
sg20
F0.0
sg21
F0.0
sg22
F0.08319055235735816
sg23
F0.009806648976834344
sg24
F0.010079116525808951
sg25
F0.04928140195789123
ssS'BAY FRANKLIN R'
p385
(dp386
g3
F0.0
sg4
F0.011276833803228595
sg5
F0.024668025927577143
sg6
F0.0
sg7
I00
sg8
F0.992796706849607
sg9
S'frank.bay@enron.com'
p387
sg11
F0.0
sg12
F0.3253584258256756
sg13
F0.0
sg14
F0.0
sg15
F0.0
sg16
F1.6171525417102897e-06
sg17
F0.0
sg18
F0.004109154807568845
sg19
F0.0002464759215298097
sg20
F0.0
sg21
F0.0
sg22
F0.02069023122193977
sg23
F0.008975020398454492
sg24
F0.002670964281980777
sg25
F0.0
ssS'HAYSLETT RODERICK J'
p388
(dp389
g3
F0.1748630272625256
sg4
F0.0031846247188520088
sg5
F0.0
sg6
F0.08770401874602121
sg7
I00
sg8
F1.0
sg9
S'rod.hayslett@enron.com'
p390
sg11
F0.0
sg12
F0.3289524743501498
sg13
F0.10342329288172432
sg14
F0.0
sg15
F0.07384465478841871
sg16
F0.0
sg17
F0.0
sg18
F0.0
sg19
F0.0008992124248956867
sg20
F0.06628787878787878
sg21
F0.06239737274220033
sg22
F0.02220134122099346
sg23
F0.0
sg24
F0.0
sg25
F0.0
ssS'FUGH JOHN L'
p391
(dp392
g3
F0.0
sg4
F0.004756462271549004
sg5
F0.0
sg6
F0.0
sg7
I00
sg8
F1.0
sg9
I0
sg11
F0.0
sg12
F0.3289524743501498
sg13
F0.0
sg14
F0.0
sg15
F0.0
sg16
F0.0
sg17
F0.0
sg18
F0.0
sg19
F0.0005073505270019576
sg20
F0.0
sg21
F0.0
sg22
F0.019593416944721352
sg23
F0.0
sg24
F0.00016325650237489307
sg25
F0.0005657420356423448
ssS'FALLON JAMES B'
p393
(dp394
g3
F0.11584923097234141
sg4
F0.0031846247188520088
sg5
F0.018322898197928712
sg6
F0.19241837603317133
sg7
I00
sg8
F1.0
sg9
S'jim.fallon@enron.com'
p395
sg11
F0.007715006707895037
sg12
F0.3289524743501498
sg13
F0.29052707842782105
sg14
F0.0
sg15
F0.005219933184855234
sg16
F0.009409507530411433
sg17
F0.0
sg18
F0.025682217547305285
sg19
F0.0054688120823869635
sg20
F0.07954545454545454
sg21
F0.060755336617405585
sg22
F0.0300664149797525
sg23
F0.011405983673971639
sg24
F0.011863501609790562
sg25
F0.0030159255077558665
ssS'KOENIG MARK E'
p396
(dp397
g3
F0.15671001386230113
sg4
F0.0031846247188520088
sg5
F0.024262119598914885
sg6
F0.12447452870099986
sg7
I01
sg8
F1.0
sg9
S'mark.koenig@enron.com'
p398
sg11
F0.006182771632652354
sg12
F0.3289524743501498
sg13
F0.411338525629415
sg14
F0.0
sg15
F0.00424554565701559
sg16
F0.00352628314667604
sg17
F0.0
sg18
F0.0071910209132454795
sg19
F0.004519921091253911
sg20
F0.10037878787878787
sg21
F0.024630541871921183
sg22
F0.028984435936386006
sg23
F0.011606626051626505
sg24
F0.005122587026476154
sg25
F0.002154632991621868
ssS'SAVAGE FRANK'
p399
(dp400
g3
F0.0
sg4
F0.0031846247188520088
sg5
F0.0
sg6
F0.0
sg7
I00
sg8
F0.9956673285370918
sg9
I0
sg11
F0.0
sg12
F0.3289524743501498
sg13
F0.0
sg14
F0.0
sg15
F0.0
sg16
F0.0
sg17
F0.08940470512693088
sg18
F0.0
sg19
F0.00010146734394590363
sg20
F0.0
sg21
F0.0
sg22
F0.019593416944721352
sg23
F0.0
sg24
F1.2101201476662825e-05
sg25
F0.0
ssS'IZZO LAWRENCE L'
p401
(dp402
g3
F0.03274143507822298
sg4
F0.0031846247188520088
sg5
F0.005366177172286511
sg6
F0.2856125286627311
sg7
I00
sg8
F1.0
sg9
S'larry.izzo@enron.com'
p403
sg11
F0.006440387117346203
sg12
F0.3289524743501498
sg13
F0.07915232747690636
sg14
F0.0
sg15
F0.0013223830734966592
sg16
F0.03641473625331865
sg17
F0.0
sg18
F0.0
sg19
F0.0134944755860315
sg20
F0.05303030303030303
sg21
F0.008210180623973728
sg22
F0.0470883111454682
sg23
F0.003193276989947922
sg24
F0.006388130676905552
sg25
F0.006944907045072555
ssS'TILNEY ELIZABETH A'
p404
(dp405
g3
F0.03036504059673906
sg4
F0.0031846247188520088
sg5
F0.0
sg6
F0.1954133926417054
sg7
I00
sg8
F0.9794590705190114
sg9
S'elizabeth.tilney@enron.com'
p406
sg11
F0.005667540663264658
sg12
F0.3289524743501498
sg13
F0.06864698424198515
sg14
F0.0
sg15
F0.0013223830734966592
sg16
F0.003563712025068958
sg17
F0.0
sg18
F0.003081866105676634
sg19
F0.0027893796964114006
sg20
F0.01893939393939394
sg21
F0.0180623973727422
sg22
F0.023932587433523275
sg23
F0.009262128481597428
sg24
F0.001288836043031679
sg25
F0.00189646655803749
ssS'MARTIN AMANDA K'
p407
(dp408
g3
F0.10046867780051488
sg4
F0.005838892911354712
sg5
F0.0015684220539509681
sg6
F0.020352906082926045
sg7
I00
sg8
F1.0
sg9
S'a..martin@enron.com'
p409
sg11
F0.10604347790961645
sg12
F0.3289524743501498
sg13
F0.08639739177685202
sg14
F0.0
sg15
F0.016007795100222717
sg16
F0.06605608767816715
sg17
F0.0
sg18
F0.0
sg19
F0.004865680506472108
sg20
F0.015151515151515152
sg21
F0.0
sg22
F0.019593416944721352
sg23
F0.01308732785357705
sg24
F0.0271293318489408
sg25
F0.006640619186307591
ssS'BUY RICHARD B'
p410
(dp411
g3
F0.2325566043963298
sg4
F0.023366880946859455
sg5
F0.0
sg6
F0.22111101837860633
sg7
I00
sg8
F0.9751771976677935
sg9
S'rick.buy@enron.com'
p412
sg11
F0.015866269782190023
sg12
F0.3289524743501498
sg13
F0.4225683752943307
sg14
F0.0
sg15
F0.07328786191536749
sg16
F0.009388203303448901
sg17
F0.0
sg18
F0.009245598317029901
sg19
F0.00802792329390047
sg20
F0.29545454545454547
sg21
F0.11658456486042693
sg22
F0.026376526705990017
sg23
F0.012378039448358535
sg24
F0.007601819872260686
sg25
F0.00815621110840251
ssS'GRAMM WENDY L'
p413
(dp414
g3
F0.0
sg4
F0.0031846247188520088
sg5
F0.0
sg6
F0.0
sg7
I00
sg8
F1.0
sg9
I0
sg11
F0.0
sg12
F0.3289524743501498
sg13
F0.0
sg14
F0.0
sg15
F0.0
sg16
F0.0
sg17
F0.08529892736377177
sg18
F0.0
sg19
F0.00010146734394590363
sg20
F0.0
sg21
F0.0
sg22
F0.019593416944721352
sg23
F0.0
sg24
F0.00038495374041441646
sg25
F0.0
ssS'CAUSEY RICHARD A'
p415
(dp416
g3
F0.12489273219354413
sg4
F0.0031846247188520088
sg5
F0.005859186223711119
sg6
F0.16074706349884402
sg7
I01
sg8
F0.991605011429509
sg9
S'richard.causey@enron.com'
p417
sg11
F0.0072132335714277475
sg12
F0.3289524743501498
sg13
F0.28708567288534687
sg14
F0.0
sg15
F0.003410356347438753
sg16
F0.007216133069998401
sg17
F0.0
sg18
F0.010272887018922114
sg19
F0.005859244927583203
sg20
F0.10984848484848485
sg21
F0.019704433497536946
sg22
F0.03841628191289568
sg23
F0.015547687222125005
sg24
F0.006030457885100125
sg25
F0.0
ssS'TAYLOR MITCHELL S'
p418
(dp419
g3
F0.03518384051752591
sg4
F0.010251353574248796
sg5
F0.0
sg6
F0.0
sg7
I00
sg8
F1.0
sg9
S'mitchell.taylor@enron.com'
p420
sg11
F0.0
sg12
F0.3289524743501498
sg13
F0.054337982249592465
sg14
F0.0
sg15
F0.0020183741648106906
sg16
F0.0
sg17
F0.0
sg18
F0.006163732211353268
sg19
F0.00871961701645443
sg20
F0.0
sg21
F0.0
sg22
F0.02383483437638744
sg23
F0.009931535563149942
sg24
F0.0035260093624252887
sg25
F0.01020403253743216
ssS'DONAHUE JR JEFFREY M'
p421
(dp422
g3
F0.05709947851343323
sg4
F0.0031846247188520088
sg5
F0.018388607269486275
sg6
F1.0
sg7
I00
sg8
F0.9892829933142668
sg9
S'jeff.donahue@enron.com'
p423
sg11
F0.0
sg12
F0.3289524743501498
sg13
F0.1398297409889513
sg14
F0.0
sg15
F0.0015311804008908685
sg16
F2.0882361082085047e-05
sg17
F0.0
sg18
F0.00821830961513769
sg19
F0.0025890499805865147
sg20
F0.3560606060606061
sg21
F0.0180623973727422
sg22
F0.021963653993026192
sg23
F0.010432841929268955
sg24
F0.0028260661880539295
sg25
F0.0024567300907096393
ssS'GLISAN JR BEN F'
p424
(dp425
g3
F0.05762756617598521
sg4
F0.0031846247188520088
sg5
F0.0240636552810419
sg6
F0.290801589499805
sg7
I01
sg8
F1.0
sg9
S'ben.glisan@enron.com'
p426
sg11
F0.001463729965552894
sg12
F0.3289524743501498
sg13
F0.1583046549538127
sg14
F0.0
sg15
F0.0011135857461024498
sg16
F0.004694617265578329
sg17
F0.0
sg18
F0.006163732211353268
sg19
F0.0018930667987280116
sg20
F0.09848484848484848
sg21
F0.009852216748768473
sg22
F0.022556085365155402
sg23
F0.010297058192543212
sg24
F0.004105644005209196
sg25
F0.001234036001590947
ss.