(dp0
S'METTS MARK'
p1
(dp2
S'salary'
p3
F0.32887760953779366
sS'to_messages'
p4
F0.05327084295993135
sS'total_payments'
p5
F0.010251860171981084
sS'bonus'
p6
F0.06683480453972257
sS'total_stock_value'
p7
F0.012799625895430116
sS'shared_receipt_with_poi'
p8
F0.12683457148034064
sS'exercised_stock_options'
p9
S'NaN'
p10
sS'from_messages'
p11
F0.0020183741648106906
sS'other'
p12
F0.0001677650385960943
sS'from_this_person_to_poi'
p13
I1
sS'poi_email_percent'
p14
F0.04665071770334928
sS'poi'
p15
I00
sS'expenses'
p16
F0.4118321195022199
sS'restricted_stock'
p17
F0.18366452871857167
sS'from_poi_to_this_person'
p18
I38
ssS'BAXTER JOHN C'
p19
(dp20
g3
F0.24003381404615312
sg4
F0.0
sg5
F0.054405313961823645
sg6
F0.1424968474148802
sg7
F0.21701822618471178
sg8
g10
sg9
F0.19441664733591246
sg11
F0.0
sg12
F0.25679257764224867
sg13
g10
sg14
F0.0
sg15
I00
sg16
F0.048343284561380484
sg17
F0.377008789035058
sg18
g10
ssS'ELLIOTT STEVEN'
p21
(dp22
g3
F0.15346319391491212
sg4
F0.0
sg5
F0.002043044855937851
sg6
F0.03530895334174023
sg7
F0.1367702447875685
sg8
g10
sg9
F0.1422927620619175
sg11
F0.0
sg12
F0.0012509016888186339
sg13
g10
sg14
F0.0
sg15
I00
sg16
F0.3429521247512193
sg17
F0.2529560322521056
sg18
g10
ssS'CORDES WILLIAM R'
p23
(dp24
g3
g10
sg4
F0.050432371773714436
sg5
g10
sg6
g10
sg7
F0.022018029761909728
sg8
F0.010146765718427252
sg9
F0.01888377145164147
sg11
F0.0008351893095768374
sg12
g10
sg13
I0
sg14
F0.01288659793814433
sg15
I00
sg16
g10
sg17
F0.1722211972417199
sg18
I10
ssS'HANNON KEVIN P'
p25
(dp26
g3
F0.21859934586565669
sg4
F0.06898145092085287
sg5
F0.0027861625056748696
sg6
F0.18032786885245902
sg7
F0.13091784215016056
sg8
F0.1871715890559884
sg9
F0.16115009597148053
sg11
F0.0022271714922048997
sg12
F0.0010953956605227145
sg13
I21
sg14
F0.04921077065923862
sg15
I01
sg16
F0.14824486582245258
sg17
F0.19909693459426664
sg18
I32
ssS'MORDAUNT KRISTINA M'
p27
(dp28
g3
F0.2400257116389279
sg4
F0.0
sg5
F0.006067749652869127
sg6
F0.03215636822194199
sg7
F0.005138994206615752
sg8
g10
sg9
g10
sg11
F0.0
sg12
F0.00013600744498383017
sg13
g10
sg14
F0.0
sg15
I00
sg16
F0.15252717450735953
sg17
F0.16198146927384854
sg18
g10
ssS'MEYER ROCKFORD G'
p29
(dp30
g3
g10
sg4
F0.015314542214007526
sg5
F0.01784555171080395
sg6
g10
sg7
F0.020343461798999724
sg8
F0.003623844899438304
sg9
F0.014272895238997564
sg11
F0.0019487750556792874
sg12
g10
sg13
I0
sg14
F0.0
sg15
I00
sg16
g10
sg17
F0.17660034006319408
sg18
I0
ssS'MCMAHON JEFFREY'
p31
(dp32
g3
F0.3330728559455014
sg4
F0.15545580566374018
sg5
F0.03958707081315314
sg6
F0.31904161412358134
sg7
F0.03472641212889136
sg8
F0.40333393730748324
sg9
F0.032050249731410005
sg11
F0.0033407572383073497
sg12
F0.028702590328876426
sg13
I26
sg14
F0.03495630461922597
sg15
I00
sg16
F0.5990857992695142
sg17
F0.1821523369785786
sg18
I58
ssS'HAEDICKE MARK E'
p33
(dp34
g3
F0.33638313943072484
sg4
F0.2646379298963628
sg5
F0.03726274843835164
sg6
F0.13619167717528374
sg7
F0.017235302371389805
sg8
F0.33429969197318354
sg9
F0.017628861689989596
sg11
F0.13509187082405344
sg12
F0.005056117791520954
sg13
I61
sg14
F0.04050420168067227
sg15
I00
sg16
F0.3325284867572119
sg17
F0.1801581164866156
sg18
I180
ssS'PIPER GREGORY F'
p35
(dp36
g3
F0.17700518824142653
sg4
F0.08172156577991947
sg5
F0.01677758744731116
sg6
F0.0416141235813367
sg7
F0.01880578964499269
sg8
F0.13408226127921724
sg9
F0.025535084350754092
sg11
F0.015451002227171492
sg12
F7.49054487632734e-05
sg13
I48
sg14
F0.07465753424657534
sg15
I00
sg16
F0.18769109638475165
sg17
F0.17355822096552703
sg18
I61
ssS'HUMPHREY GENE E'
p37
(dp38
g3
F0.11725713709543105
sg4
F0.008449402600831738
sg5
F0.029935174072873657
sg6
g10
sg7
F0.04733801735767246
sg8
F0.02119949266171408
sg9
F0.06636996445984913
sg11
F0.001183184855233853
sg12
g10
sg13
I17
sg14
F0.18620689655172415
sg15
I00
sg16
F0.02119720928198062
sg17
g10
sg18
I10
ssS'NOLES JAMES L'
p39
(dp40
g3
g10
sg4
F0.0
sg5
F0.007476396814608625
sg6
g10
sg7
F0.008398025876583292
sg8
g10
sg9
g10
sg11
F0.0
sg12
g10
sg13
g10
sg14
F0.0
sg15
I00
sg16
g10
sg17
F0.1766508405070452
sg18
g10
ssS'BLACHMAN JEREMY M'
p41
(dp42
g3
F0.22332845088275727
sg4
F0.16337712060201995
sg5
F0.019454363714746223
sg6
F0.09836065573770492
sg7
F0.02031255902983289
sg8
F0.42109077731473094
sg9
F0.02218738691072051
sg11
F0.0009743875278396437
sg12
F2.6062462842891518e-05
sg13
I2
sg14
F0.010847730012053034
sg15
I00
sg16
F0.367692408634604
sg17
F0.16086038245362366
sg18
I25
ssS'SUNDE MARTIN'
p43
(dp44
g3
F0.23137684205977596
sg4
F0.1747310053468876
sg5
F0.014918079334860602
sg6
F0.07944514501891552
sg7
F0.01511597052465802
sg8
F0.46439572386301864
sg9
g10
sg11
F0.0026447661469933183
sg12
F0.010726151374452242
sg13
I13
sg14
F0.0186219739292365
sg15
I00
sg16
g10
sg17
F0.19022083377672377
sg18
I37
ssS'GIBBS DANA R'
p45
(dp46
g3
g10
sg4
F0.011155851871410653
sg5
F0.009331569261366239
sg6
g10
sg7
F0.046025961865982845
sg8
F0.0038050371444102193
sg9
F0.06449217106638709
sg11
F0.0008351893095768374
sg12
g10
sg13
I0
sg14
F0.0
sg15
I00
sg16
g10
sg17
g10
sg18
I0
ssS'LOWRY CHARLES P'
p47
(dp48
g3
g10
sg4
F0.0
sg5
g10
sg6
g10
sg7
F0.008469230413834057
sg8
g10
sg9
F0.01074156169996773
sg11
F0.0
sg12
g10
sg13
g10
sg14
F0.0
sg15
I00
sg16
g10
sg17
F0.15882452932665
sg18
g10
ssS'COLWELL WESLEY'
p49
(dp50
g3
F0.25933554859148655
sg4
F0.1160472638457984
sg5
F0.014389736465396343
sg6
F0.1424968474148802
sg7
F0.015102177188584871
sg8
F0.20474723681826418
sg9
g10
sg11
F0.0027839643652561247
sg12
F0.00982052905448184
sg13
I11
sg14
F0.13959955506117908
sg15
I01
sg16
F0.07158760361306125
sg17
F0.1901817923845561
sg18
I240
ssS'MULLER MARK S'
p51
(dp52
g3
F0.22612648217785505
sg4
F0.008977490263383722
sg5
F0.03091862665230264
sg6
F0.12988650693568726
sg7
F0.029721607958763052
sg8
F0.020293531436854504
sg9
F0.03066041533320373
sg11
F0.0011135857461024498
sg12
F9.121861995012031e-05
sg13
I0
sg14
F0.07894736842105263
sg15
I00
sg16
g10
sg17
F0.17073514826285383
sg18
I12
ssS'JACKSON CHARLENE R'
p53
(dp54
g3
F0.259349952870998
sg4
F0.017030827117301472
sg5
F0.005320856401158965
sg6
F0.02269861286254729
sg7
F0.015661499000766386
sg8
F0.020837108171770247
sg9
F0.005292691105650911
sg11
F0.0038975501113585748
sg12
F0.00023485174850650022
sg13
I19
sg14
F0.14012738853503184
sg15
I00
sg16
F0.04388600922949063
sg17
F0.18110841161190047
sg18
I25
ssS'WESTFAHL RICHARD K'
p55
(dp56
g3
F0.05695722199065342
sg4
F0.0
sg5
F0.007357952994141685
sg6
g10
sg7
F0.008728109767124341
sg8
g10
sg9
g10
sg11
F0.0
sg12
F0.03871993924164218
sg13
g10
sg14
F0.0
sg15
I00
sg16
F0.22624062288126326
sg17
F0.1721402928818444
sg18
g10
ssS'WALTERS GARETH W'
p57
(dp58
g3
g10
sg4
F0.0
sg5
F0.0008426255227120564
sg6
g10
sg7
F0.021858206092012007
sg8
g10
sg9
F0.02990365524932684
sg11
F0.0
sg12
g10
sg13
g10
sg14
F0.0
sg15
I00
sg16
F0.14713382761411106
sg17
g10
sg18
g10
ssS'WALLS JR ROBERT H'
p59
(dp60
g3
F0.32104798335585505
sg4
F0.044293352696547626
sg5
F0.0173680780771313
sg6
F0.09836065573770492
sg7
F0.12090713522561493
sg8
F0.038593948179017935
sg9
F0.1264593530506347
sg11
F0.010161469933184855
sg12
F0.0
sg13
I0
sg14
F0.0208078335373317
sg15
I00
sg16
F0.2221551516742121
sg17
F0.23936997327680049
sg18
I17
ssS'KITCHEN LOUISE'
p61
(dp62
g3
F0.24394097486363198
sg4
F0.548221004686778
sg5
F0.03351684915490006
sg6
F0.38209331651954603
sg7
F0.012028195938855322
sg8
F0.6644319623120131
sg9
F0.0022639911447045183
sg11
F0.12026726057906459
sg12
F0.00906616554664037
sg13
I194
sg14
F0.044353633011063494
sg15
I00
sg16
F0.024609058898147542
sg17
F0.17681437672202482
sg18
I251
ssS'CHAN RONNIE'
p63
(dp64
g3
g10
sg4
F0.0
sg5
g10
sg6
g10
sg7
g10
sg8
g10
sg9
g10
sg11
F0.0
sg12
g10
sg13
g10
sg14
F0.0
sg15
I00
sg16
g10
sg17
F0.15184395144033946
sg18
g10
ssS'BELFER ROBERT'
p65
(dp66
g3
g10
sg4
F0.0
sg5
F0.0009883386525706998
sg6
g10
sg7
F0.0
sg8
g10
sg9
F0.0
sg11
F0.0
sg12
g10
sg13
g10
sg14
F0.0
sg15
I00
sg16
g10
sg17
g10
sg18
g10
ssS'SHANKMAN JEFFREY A'
p67
(dp68
g3
F0.27335091255612043
sg4
F0.21262129513499242
sg5
F0.029341100966500996
sg6
F0.24337957124842372
sg7
F0.043050832858110864
sg8
F0.3131001993114695
sg9
F0.04188699528861454
sg11
F0.18659521158129175
sg12
F0.00011477136414888153
sg13
I83
sg14
F0.029989833954591663
sg15
I00
sg16
F0.7822365111650592
sg17
F0.1862600902996306
sg18
I94
ssS'WODRASKA JOHN'
p69
(dp70
g3
g10
sg4
F0.0
sg5
F0.001829235702768197
sg6
g10
sg7
g10
sg8
g10
sg9
g10
sg11
F0.0
sg12
F0.018299806548956358
sg13
g10
sg14
F0.0
sg15
I00
sg16
g10
sg17
g10
sg18
g10
ssS'BERGSIEKER RICHARD P'
p71
(dp72
g3
F0.16875063581390032
sg4
F0.025282196844676218
sg5
F0.005974354199456747
sg6
F0.02269861286254729
sg7
F0.014308897611150843
sg8
F0.04185540858851241
sg9
g10
sg11
F0.004106347438752784
sg12
F0.04124761202684202
sg13
I0
sg14
F0.00904977375565611
sg15
I00
sg16
F0.2581939067865188
sg17
F0.1879364516695205
sg18
I4
ssS'URQUHART JOHN A'
p73
(dp74
g3
g10
sg4
F0.0
sg5
F0.0022065351807646696
sg6
g10
sg7
g10
sg8
g10
sg9
g10
sg11
F0.0
sg12
g10
sg13
g10
sg14
F0.0
sg15
I00
sg16
F0.9995319642193207
sg17
g10
sg18
g10
ssS'BIBI PHILIPPE A'
p75
(dp76
g3
F0.19189021058156377
sg4
F0.10607960921512971
sg5
F0.019770683841181573
sg6
F0.11727616645649433
sg7
F0.038407910490444445
sg8
F0.2417104547925349
sg9
F0.042581009884408834
sg11
F0.0027839643652561247
sg12
F0.0410904650286634
sg13
I8
sg14
F0.018822100789313904
sg15
I00
sg16
F0.16801609693152242
sg17
F0.17174596330431602
sg18
I23
ssS'RIEKER PAULA H'
p77
(dp78
g3
F0.22391812607525696
sg4
F0.08766255198362928
sg5
F0.010611778362121654
sg6
F0.07944514501891552
sg7
F0.03993516643785936
sg8
F0.22757745968472548
sg9
F0.04751632831222877
sg11
F0.005707126948775056
sg12
F0.00018803584302945435
sg13
I48
sg14
F0.058865248226950356
sg15
I01
sg16
F0.14488550620038054
sg17
F0.16630821140672009
sg18
I35
ssS'WHALEY DAVID A'
p79
(dp80
g3
g10
sg4
F0.0
sg5
g10
sg6
g10
sg7
F0.002905368905519737
sg8
g10
sg9
F0.0027786497281606323
sg11
F0.0
sg12
g10
sg13
g10
sg14
F0.0
sg15
I00
sg16
g10
sg17
g10
sg18
g10
ssS'BECK SALLY W'
p81
(dp82
g3
F0.20782944612844476
sg4
F0.48287015644597003
sg5
F0.00935615412741131
sg6
F0.07944514501891552
sg7
F0.00346094739345721
sg8
F0.4778039499909404
sg9
g10
sg11
F0.30226893095768376
sg12
F5.444158904959561e-05
sg13
I386
sg14
F0.0454623434551381
sg15
I00
sg16
F0.1619491284473897
sg17
F0.15723183630900145
sg18
I144
ssS'HAUG DAVID L'
p83
(dp84
g3
g10
sg4
F0.03782427883028583
sg5
F3.157600627155491e-06
sg6
g10
sg7
F0.04600610597216664
sg8
F0.08497916289182823
sg9
g10
sg11
F0.0013223830734966592
sg12
g10
sg13
I7
sg14
F0.018581081081081082
sg15
I00
sg16
F0.0014303523390853618
sg17
F0.277653916369883
sg18
I4
ssS'ECHOLS JOHN B'
p85
(dp86
g3
F0.1636398173897465
sg4
F0.0
sg5
F0.02599638111930569
sg6
F0.01639344262295082
sg7
F0.02142308533694933
sg8
g10
sg9
F0.017415963774045317
sg11
F0.0
sg12
F0.005190580794262243
sg13
g10
sg14
F0.0
sg15
I00
sg16
F0.09352842114471929
sg17
F0.17344011787506108
sg18
g10
ssS'MENDELSOHN JOHN'
p87
(dp88
g3
g10
sg4
F0.0
sg5
F0.0
sg6
g10
sg7
g10
sg8
g10
sg9
g10
sg11
F0.0
sg12
g10
sg13
g10
sg14
F0.0
sg15
I00
sg16
F0.0
sg17
g10
sg18
g10
ssS'HICKERSON GARY J'
p89
(dp90
g3
F0.19023641924015625
sg4
F0.0871344643210773
sg5
F0.0201009572792568
sg6
F0.2055485498108449
sg7
F0.009870759492617625
sg8
F0.16271063598477986
sg9
g10
sg11
F0.0018791759465478842
sg12
F0.00018668445606723034
sg13
I1
sg14
F0.030438010393466965
sg15
I00
sg16
F0.4317345755965269
sg17
F0.17537450944893823
sg18
I40
ssS'CLINE KENNETH W'
p91
(dp92
g3
g10
sg4
F0.0
sg5
g10
sg6
g10
sg7
F0.004752618043339598
sg8
g10
sg9
g10
sg11
F0.0
sg12
g10
sg13
g10
sg14
F0.0
sg15
I00
sg16
g10
sg17
F0.18809981513497726
sg18
g10
ssS'LEWIS RICHARD'
p93
(dp94
g3
g10
sg4
F0.06284243184368606
sg5
g10
sg6
g10
sg7
F0.01819926939669067
sg8
F0.1335386845443015
sg9
F0.02466704201376738
sg11
F0.001809576837416481
sg12
g10
sg13
I0
sg14
F0.010224948875255624
sg15
I00
sg16
g10
sg17
g10
sg18
I10
ssS'HAYES ROBERT E'
p95
(dp96
g3
g10
sg4
F0.03326952274077497
sg5
F7.544444556564481e-05
sg6
g10
sg7
F0.003977505794981264
sg8
F0.00869722775865193
sg9
g10
sg11
F0.0008351893095768374
sg12
g10
sg13
I0
sg14
F0.031007751937984496
sg15
I00
sg16
g10
sg17
F0.15869393068736345
sg18
I16
ssS'KOPPER MICHAEL J'
p97
(dp98
g3
F0.20150506715545188
sg4
F0.0
sg5
F0.02561291128412037
sg6
F0.09205548549810845
sg7
F0.0209366769709126
sg8
g10
sg9
g10
sg11
F0.0
sg12
F0.08759883344416315
sg13
g10
sg14
F0.0
sg15
I01
sg16
F0.5160903702731667
sg17
F0.2066960709387854
sg18
g10
ssS'LEFF DANIEL P'
p99
(dp100
g3
F0.24601519111327977
sg4
F0.18628292296521223
sg5
F0.025725078528417124
sg6
F0.11727616645649433
sg7
F0.008231671733412002
sg8
F0.4837832940750136
sg9
g10
sg11
F0.004384743875278397
sg12
F0.0002974016593294399
sg13
I14
sg14
F0.028076256499133447
sg15
I00
sg16
g10
sg17
F0.17073514826285383
sg18
I67
ssS'LAVORATO JOHN J'
p101
(dp102
g3
F0.30502052159696647
sg4
F0.47917354280810615
sg5
F0.10067250616782242
sg6
F1.0
sg7
F0.10601820545401935
sg8
F0.7175212900887842
sg9
F0.1209986321483598
sg11
F0.17991369710467706
sg12
F0.0001496178422462291
sg13
I411
sg14
F0.09538805363673304
sg15
I00
sg16
F0.2160356931959845
sg17
F0.2080272211788151
sg18
I528
ssS'BERBERIAN DAVID'
p103
(dp104
g3
F0.1945523014887723
sg4
F0.0
sg5
F0.002204777739437017
sg6
g10
sg7
F0.05162754143488657
sg8
g10
sg9
F0.04720065008401927
sg11
F0.0
sg12
g10
sg13
g10
sg14
F0.0
sg15
I00
sg16
F0.051370207554184984
sg17
F0.20002724835807337
sg18
g10
ssS'DETMERING TIMOTHY J'
p105
(dp106
g3
F0.1890768747394851
sg4
F0.0
sg5
F0.011630350799290593
sg6
F0.04476670870113493
sg7
F0.0421522315980062
sg8
g10
sg9
F0.05894814861357657
sg11
F0.0
sg12
F0.00010646998709521978
sg13
g10
sg14
F0.0
sg15
I00
sg16
F0.22792467685847384
sg17
F0.1681174171596938
sg18
g10
ssS'WAKEHAM JOHN'
p107
(dp108
g3
g10
sg4
F0.0
sg5
F0.0020560421967456533
sg6
g10
sg7
g10
sg8
g10
sg9
g10
sg11
F0.0
sg12
g10
sg13
g10
sg14
F0.0
sg15
I00
sg16
F0.4532729698401242
sg17
g10
sg18
g10
ssS'POWERS WILLIAM'
p109
(dp110
g3
g10
sg4
F0.04310515545580566
sg5
g10
sg6
g10
sg7
g10
sg8
F0.001811922449719152
sg9
g10
sg11
F0.001809576837416481
sg12
g10
sg13
I0
sg14
F0.0
sg15
I00
sg16
g10
sg17
g10
sg18
I0
ssS'GOLD JOSEPH'
p111
(dp112
g3
F0.24523555948472292
sg4
F0.0
sg5
F0.020730324056247973
sg6
F0.08575031525851198
sg7
F0.018751287657765604
sg8
g10
sg9
F0.012614026822284017
sg11
F0.0
sg12
F0.0790837441951897
sg13
g10
sg14
F0.0
sg15
I00
sg16
g10
sg17
F0.17537450944893823
sg18
g10
ssS'BANNANTINE JAMES M'
p113
(dp114
g3
F0.0
sg4
F0.03736220212555284
sg5
F0.008845617421728319
sg6
g10
sg7
F0.10757133916468656
sg8
F0.08389200942199673
sg9
F0.1177132143366365
sg11
F0.0020183741648106906
sg12
F0.08345017199777562
sg13
I0
sg14
F0.06554621848739496
sg15
I00
sg16
F0.2456225532007961
sg17
F0.2511802247402193
sg18
I39
ssS'DUNCAN JOHN H'
p115
(dp116
g3
g10
sg4
F0.0
sg5
F0.0007468546266260375
sg6
g10
sg7
F0.008459973823991458
sg8
g10
sg9
F0.010728313812692751
sg11
F0.0
sg12
g10
sg13
g10
sg14
F0.0
sg15
I00
sg16
g10
sg17
g10
sg18
g10
ssS'SHAPIRO RICHARD S'
p117
(dp118
g3
F0.24181094203087738
sg4
F1.0
sg5
F0.010210540988239192
sg6
F0.07313997477931904
sg7
F0.020976734609154533
sg8
F0.8198949084979162
sg9
F0.01760227856673233
sg11
F0.08456291759465479
sg12
F6.78589310316768e-05
sg13
I65
sg14
F0.00849425568320704
sg15
I00
sg16
F0.6019683747785578
sg17
F0.17180826829889628
sg18
I74
ssS'SHERRIFF JOHN R'
p119
(dp120
g3
F0.3855872579743442
sg4
F0.21037692256914647
sg5
F0.04186225242467759
sg6
F0.18032786885245902
sg7
F0.06455352486770655
sg8
F0.38068490668599386
sg9
F0.05334889266151191
sg11
F0.006403118040089087
sg12
F0.17878695065999325
sg13
I23
sg14
F0.01555352241537054
sg15
I00
sg16
g10
sg17
F0.22445426122399717
sg18
I28
ssS'SHELBY REX'
p121
(dp122
g3
F0.1902868342184463
sg4
F0.01485246550927454
sg5
F0.019348627546956154
sg6
F0.01639344262295082
sg7
F0.05162754143488657
sg8
F0.016126109802500455
sg9
F0.04720065008401927
sg11
F0.0027143652561247215
sg12
F0.15186905987001395
sg13
I14
sg14
F0.10227272727272728
sg15
I01
sg16
F0.0994510421450911
sg17
F0.20002724835807337
sg18
I13
ssS'LEMAISTRE CHARLES'
p123
(dp124
g3
g10
sg4
F0.0
sg5
F0.000843417336936603
sg6
g10
sg7
F0.009296688169148453
sg8
g10
sg9
F0.011925806357407791
sg11
F0.0
sg12
g10
sg13
g10
sg14
F0.0
sg15
I00
sg16
g10
sg17
g10
sg18
g10
ssS'DEFFNER JOSEPH M'
p125
(dp126
g3
F0.18513460349069708
sg4
F0.04713182388276454
sg5
F0.011669613197302869
sg6
F0.06683480453972257
sg7
F0.004136047783208469
sg8
F0.09965573473455336
sg9
F0.0004103351106951242
sg11
F0.00515033407572383
sg12
F0.002466377733698967
sg13
I4
sg14
F0.15101522842639595
sg15
I00
sg16
F0.18143166458893772
sg17
F0.15814199596180714
sg18
I115
ssS'KISHKILL JOSEPH G'
p127
(dp128
g3
F0.15643857790149454
sg4
F0.0
sg5
F0.00680523769659504
sg6
g10
sg7
F0.021939928556622388
sg8
g10
sg9
g10
sg11
F0.0
sg12
F0.04491961998612512
sg13
g10
sg14
F0.0
sg15
I00
sg16
F0.5082212453251099
sg17
F0.20953572759565373
sg18
g10
ssS'WHALLEY LAWRENCE G'
p129
(dp130
g3
F0.45903467920319124
sg4
F0.3973199551125487
sg5
F0.0451664931837107
sg6
F0.3694829760403531
sg7
F0.12457193103714434
sg8
F0.7099112157999637
sg9
F0.09549179054630182
sg11
F0.03869710467706013
sg12
F0.02905713635117991
sg13
I24
sg14
F0.03193916349809886
sg15
I00
sg16
F0.25234564661111475
sg17
F0.31098754913572263
sg18
I186
ssS'PIRO JIM'
p131
(dp132
g3
g10
sg4
F0.0038286355535018814
sg5
g10
sg6
g10
sg7
F0.0018593945974594913
sg8
F0.0001811922449719152
sg9
g10
sg11
F0.0011135857461024498
sg12
g10
sg13
I1
sg14
F0.013513513513513514
sg15
I00
sg16
g10
sg17
F0.15269871607947952
sg18
I0
ssS'MCCONNELL MICHAEL S'
p133
(dp134
g3
F0.3282024089356948
sg4
F0.2197504785794442
sg5
F0.020289911190792514
sg6
F0.12988650693568726
sg7
F0.06398993078328999
sg8
F0.39626743975357853
sg9
F0.047160294981243175
sg11
F0.19084075723830735
sg12
F5.1931870405465315e-05
sg13
I194
sg14
F0.047109207708779445
sg15
I00
sg16
F0.3552522800341185
sg17
F0.23509822307537454
sg18
I92
ssS'DELAINEY DAVID W'
p135
(dp136
g3
F0.3283149423693779
sg4
F0.20417189253416068
sg5
F0.045846342945652235
sg6
F0.3694829760403531
sg7
F0.07442611533413919
sg8
F0.37959775321616235
sg9
F0.06661293944734298
sg11
F0.21359966592427618
sg12
F0.00016013935502354453
sg13
I609
sg14
F0.10954235637779941
sg15
I01
sg16
F0.3762920193338145
sg17
F0.22616586349655168
sg18
I66
ssS'SULLIVAN-SHAKLOVITZ COLLEEN'
p137
(dp138
g3
F0.14611521082913734
sg4
F0.0
sg5
F0.00964862326439995
sg6
F0.0037831021437578815
sg7
F0.028613400885145638
sg8
g10
sg9
F0.039571584871541644
sg11
F0.0
sg12
F1.5444422425417196e-05
sg13
g10
sg14
F0.0
sg15
I00
sg16
g10
sg17
g10
sg18
g10
ssS'WROBEL BRUCE'
p139
(dp140
g3
g10
sg4
F0.0
sg5
g10
sg6
g10
sg7
F0.0037275168367705766
sg8
g10
sg9
F0.003955295048064937
sg11
F0.0
sg12
g10
sg13
g10
sg14
F0.0
sg15
I00
sg16
g10
sg17
g10
sg18
g10
ssS'LINDHOLM TOD A'
p141
(dp142
g3
F0.21244511744439273
sg4
F0.0
sg5
F0.008456392449008492
sg6
F0.01639344262295082
sg7
F0.06323575266888339
sg8
g10
sg9
F0.07413214910226347
sg11
F0.0
sg12
F0.00025367463833747745
sg13
g10
sg14
F0.0
sg15
I00
sg16
F0.25186011416573717
sg17
F0.1796213261358972
sg18
g10
ssS'MEYER JEROME J'
p143
(dp144
g3
g10
sg4
F0.0
sg5
F1.9341510875206264e-05
sg6
g10
sg7
g10
sg8
g10
sg9
g10
sg11
F0.0
sg12
g10
sg13
g10
sg14
F0.0
sg15
I00
sg16
F0.008761454847669664
sg17
g10
sg18
g10
ssS'LAY KENNETH L'
p145
(dp146
g3
F0.9649462855414344
sg4
F0.28206482276057826
sg5
F1.0
sg6
F0.8738965952080706
sg7
F1.0
sg8
F0.43649211813734373
sg9
F1.0
sg11
F0.0025055679287305124
sg12
F1.0
sg13
I16
sg14
F0.03225806451612903
sg15
I01
sg16
F0.4360343809461321
sg17
F1.0
sg18
I123
ssS'BUTTS ROBERT H'
p147
(dp148
g3
F0.23500491996172063
sg4
F0.0
sg5
F0.01227731130210035
sg6
F0.08575031525851198
sg7
F0.00939313980089299
sg8
g10
sg9
g10
sg11
F0.0
sg12
F0.014542275100492512
sg13
g10
sg14
F0.0
sg15
I00
sg16
F0.040513527108894866
sg17
F0.17402262926616463
sg18
g10
ssS'OLSON CINDY K'
p149
(dp150
g3
F0.295828790733727
sg4
F0.07815697405769358
sg5
F0.012759883446877401
sg6
F0.08575031525851198
sg7
F0.053929421370975825
sg8
F0.15473817720601557
sg9
F0.047568621071670224
sg11
F0.003619153674832962
sg12
F9.363181095409175e-05
sg13
I15
sg14
F0.02831715210355987
sg15
I00
sg16
F0.27838505784834766
sg17
F0.20581487562264686
sg18
I20
ssS'MCDONALD REBECCA'
p151
(dp152
g3
g10
sg4
F0.05901379629018417
sg5
g10
sg6
g10
sg7
F0.035306444289336096
sg8
F0.13009603188983512
sg9
F0.021954107629737797
sg11
F0.0009047884187082405
sg12
g10
sg13
I1
sg14
F0.06063947078280044
sg15
I00
sg16
g10
sg17
F0.20376122929481802
sg18
I54
ssS'CUMBERLAND MICHAEL S'
p153
(dp154
g3
F0.16602912725370708
sg4
F0.0
sg5
F0.007800412989055728
sg6
F0.03215636822194199
sg7
F0.005127398039120627
sg8
g10
sg9
g10
sg11
F0.0
sg12
F6.863115215294766e-05
sg13
g10
sg14
F0.0
sg15
I00
sg16
F0.09708899241082168
sg17
F0.16194864686450403
sg18
g10
ssS'GAHN ROBERT S'
p155
(dp156
g3
F0.17242912869413501
sg4
F0.0
sg5
F0.008694863718391465
sg6
F0.055469104665825976
sg7
F0.007378824474529333
sg8
g10
sg9
F0.002327901282217879
sg11
F0.0
sg12
F0.007388708215959745
sg13
g10
sg14
F0.0
sg15
I00
sg16
F0.21841086542877763
sg17
F0.16352815333524048
sg18
g10
ssS'BADUM JAMES P'
p157
(dp158
g3
g10
sg4
F0.0
sg5
F0.0017605120218401676
sg6
g10
sg7
F0.006142103383251037
sg8
g10
sg9
F0.007411013722802197
sg11
F0.0
sg12
g10
sg13
g10
sg14
F0.0
sg15
I00
sg16
F0.01460096669072458
sg17
g10
sg18
g10
ssS'HERMANN ROBERT J'
p159
(dp160
g3
F0.23603752674919717
sg4
F0.0
sg5
F0.012527205940113062
sg6
F0.07944514501891552
sg7
F0.014489614726693285
sg8
g10
sg9
F0.005363647372220415
sg11
F0.0
sg12
F0.04019787394011445
sg13
g10
sg14
F0.0
sg15
I00
sg16
F0.2108741771099884
sg17
F0.17765111782761256
sg18
g10
ssS'FALLON JAMES B'
p161
(dp162
g3
F0.2737812404065248
sg4
F0.11584923097234141
sg5
F0.03549830631420183
sg6
F0.3064312736443884
sg7
F0.04834771804004181
sg8
F0.2902699764450081
sg9
F0.02728109766112481
sg11
F0.005219933184855234
sg12
F0.03875382044333794
sg13
I37
sg14
F0.04316939890710383
sg15
I00
sg16
F0.418940139535901
sg17
F0.23013875702341977
sg18
I42
ssS'GATHMANN WILLIAM D'
p163
(dp164
g3
g10
sg4
F0.0
sg5
g10
sg6
g10
sg7
F0.040473737213470654
sg8
g10
sg9
F0.05096741750547873
sg11
F0.0
sg12
g10
sg13
g10
sg14
F0.0
sg15
I00
sg16
g10
sg17
F0.16517750819638902
sg18
g10
ssS'HORTON STANLEY C'
p165
(dp166
g3
g10
sg4
F0.1551257508746452
sg5
F0.03024065986321216
sg6
g10
sg7
F0.1485273955693404
sg8
F0.19423808660989308
sg9
F0.15161650866110474
sg11
F0.07467984409799555
sg12
g10
sg13
I15
sg14
F0.017236342389716622
sg15
I00
sg16
g10
sg17
F0.26779452526818787
sg18
I44
ssS'BOWEN JR RAYMOND M'
p167
(dp168
g3
F0.25038598967753317
sg4
F0.1226483596276982
sg5
F0.02577684579741462
sg6
F0.1614123581336696
sg7
F0.006024880370782777
sg8
F0.2882768617503171
sg9
g10
sg11
F0.0018791759465478842
sg12
F0.00015627824941719025
sg13
I15
sg14
F0.08222811671087533
sg15
I01
sg16
F0.28764079347374405
sg17
F0.16448892859824588
sg18
I140
ssS'GILLIS JOHN'
p169
(dp170
g3
g10
sg4
F0.0
sg5
g10
sg6
g10
sg7
F0.0026393284101973767
sg8
g10
sg9
F0.00018977962474354783
sg11
F0.0
sg12
g10
sg13
g10
sg14
F0.0
sg15
I00
sg16
g10
sg17
F0.1543417943746306
sg18
g10
ssS'FITZGERALD JAY L'
p171
(dp172
g3
F0.1788651408333416
sg4
F0.061786256518582085
sg5
F0.013660813534074976
sg6
F0.03530895334174023
sg7
F0.033879708804365756
sg8
F0.13063960862475085
sg9
F0.01925095630092666
sg11
F0.0011135857461024498
sg12
F0.027550146833019828
sg13
I8
sg14
F0.009453781512605041
sg15
I00
sg16
F0.10376396999322005
sg17
F0.20506894318291227
sg18
I1
ssS'MORAN MICHAEL P'
p173
(dp174
g3
g10
sg4
F0.04435936365436662
sg5
g10
sg6
g10
sg7
F0.005395961209477015
sg8
F0.0226490306214894
sg9
F0.001637904726959733
sg11
F0.0013223830734966592
sg12
g10
sg13
I0
sg14
F0.0
sg15
I00
sg16
g10
sg17
F0.15928035773431862
sg18
I0
ssS'REDMOND BRIAN L'
p175
(dp176
g3
F0.08675247416007295
sg4
F0.11030431051554558
sg5
F0.0010755251237101093
sg6
g10
sg7
F0.16141899738274498
sg8
F0.19224497191520204
sg9
F0.2185393030895034
sg11
F0.01538140311804009
sg12
g10
sg13
I49
sg14
F0.13372093023255813
sg15
I00
sg16
F0.06360475034446558
sg17
F0.17193040221156242
sg18
I204
ssS'BAZELIDES PHILIP J'
p177
(dp178
g3
F0.07232838876430188
sg4
F0.0
sg5
F0.008304277211456258
sg6
g10
sg7
F0.033440376809528535
sg8
g10
sg9
F0.04647987766755309
sg11
F0.0
sg12
F8.417210221852372e-05
sg13
g10
sg14
F0.0
sg15
I00
sg16
g10
sg17
g10
sg18
g10
ssS'BELDEN TIMOTHY N'
p179
(dp180
g3
F0.19222691061514377
sg4
F0.5274935639316126
sg5
F0.053123801264479034
sg6
F0.6532155107187894
sg7
F0.02349338777374559
sg8
F1.0
sg9
F0.027656085661596143
sg11
F0.03368596881959911
sg12
F0.020337987670910634
sg13
I108
sg14
F0.03964601769911504
sg15
I01
sg16
F0.07526627736587713
sg17
F0.15904812479241265
sg18
I228
ssS'DIMICHELE RICHARD G'
p181
(dp182
g3
F0.23615006018288034
sg4
F0.0
sg5
F0.022866078770354997
sg6
F0.11727616645649433
sg7
F0.17011526854964149
sg8
g10
sg9
F0.2384174231088983
sg11
F0.0
sg12
F0.03616765190820183
sg13
g10
sg14
F0.0
sg15
I00
sg16
F0.15600026244997048
sg17
F0.15723183630900145
sg18
g10
ssS'DURAN WILLIAM D'
p183
(dp184
g3
F0.18924972609362242
sg4
F0.05967390586837415
sg5
F0.020211685739169923
sg6
F0.08575031525851198
sg7
F0.03427995968032906
sg8
F0.10817177024823338
sg9
F0.042177313275469086
sg11
F0.0008351893095768374
sg12
F0.0001511622844887708
sg13
I3
sg14
F0.11899563318777293
sg15
I00
sg16
F0.11214049821752728
sg17
F0.16086038245362366
sg18
I106
ssS'THORN TERENCE H'
p185
(dp186
g3
F0.1995136755129949
sg4
F0.017558914779853455
sg5
F0.008799808071956986
sg6
g10
sg7
F0.09891101611702494
sg8
F0.012864649393005979
sg9
F0.129543694138136
sg11
F0.002853563474387528
sg12
F0.041181297538052886
sg13
I0
sg14
F0.0
sg15
I00
sg16
F0.20119852153183299
sg17
F0.17101108683404484
sg18
I0
ssS'FASTOW ANDREW S'
p187
(dp188
g3
F0.3963166456754302
sg4
F0.0
sg5
F0.023406173321664052
sg6
F0.15510718789407313
sg7
F0.03740282793091964
sg8
g10
sg9
g10
sg11
F0.0
sg12
F0.026782752093756912
sg13
g10
sg14
F0.0
sg15
I01
sg16
F0.24396037005445836
sg17
F0.2533027405444973
sg18
g10
ssS'FOY JOE'
p189
(dp190
g3
g10
sg4
F0.0037626245956828832
sg5
F0.0017536464131370864
sg6
g10
sg7
F0.007883908773479264
sg8
F0.0
sg9
F0.009903858480652509
sg11
F0.0009047884187082405
sg12
g10
sg13
I0
sg14
F0.0
sg15
I00
sg16
g10
sg17
g10
sg18
I0
ssS'CALGER CHRISTOPHER F'
p191
(dp192
g3
F0.21580491564043677
sg4
F0.17149646841375668
sg5
F0.01582806700428531
sg6
F0.14880201765447668
sg7
F0.00346094739345721
sg8
F0.39608624750860666
sg9
g10
sg11
F0.01002227171492205
sg12
F4.671937783688701e-05
sg13
I25
sg14
F0.08169219547775347
sg15
I01
sg16
F0.1560265074470179
sg17
F0.15723183630900145
sg18
I199
ssS'RICE KENNETH D'
p193
(dp194
g3
F0.37825547970301976
sg4
F0.059739916826193146
sg5
F0.004875470556122512
sg6
F0.21185372005044137
sg7
F0.45950590846095235
sg8
F0.1561877151657909
sg9
F0.5762362193220057
sg11
F0.0012527839643652562
sg12
F0.016876603022454164
sg13
I4
sg14
F0.04983748645720477
sg15
I01
sg16
F0.20471972530236424
sg17
F0.3082343248234615
sg18
I42
ssS'KAMINSKI WINCENTY J'
p195
(dp196
g3
F0.24723505353440506
sg4
F0.3041124826721236
sg5
F0.01049320901013131
sg6
F0.0416141235813367
sg7
F0.020753681310178133
sg8
F0.10527269432868273
sg9
F0.02465344473166317
sg11
F1.0
sg12
F0.0004504944966213878
sg13
I171
sg14
F0.011172595520421607
sg15
I00
sg16
F0.3649673031078451
sg17
F0.15723183630900145
sg18
I41
ssS'COX DAVID'
p197
(dp198
g3
F0.282513834860337
sg4
F0.006733117697537792
sg5
F0.010633920191595867
sg6
F0.09205548549810845
sg7
F0.010980268592059054
sg8
F0.012502264903062148
sg9
F0.0033269957964016934
sg11
F0.002296770601336303
sg12
F4.7491598958157875e-05
sg13
I4
sg14
F0.02962962962962963
sg15
I00
sg16
F0.12122126719594077
sg17
F0.17174596330431602
sg18
I0
ssS'OVERDYKE JR JERE C'
p199
(dp200
g3
F0.08504286623555858
sg4
F0.0
sg5
F0.0024105818439219256
sg6
g10
sg7
F0.14956384881356252
sg8
g10
sg9
F0.15324727991030104
sg11
F0.0
sg12
F1.67958093876412e-05
sg13
g10
sg14
F0.0
sg15
I00
sg16
F0.08173566913807055
sg17
F0.26750298165676467
sg18
g10
ssS'PEREIRA PAULO V. FERRAZ'
p201
(dp202
g3
g10
sg4
F0.0
sg5
F0.0002683863970371857
sg6
g10
sg7
g10
sg8
g10
sg9
g10
sg11
F0.0
sg12
g10
sg13
g10
sg14
F0.0
sg15
I00
sg16
F0.12157557465608118
sg17
g10
sg18
g10
ssS'STABLER FRANK'
p203
(dp204
g3
F0.2151864318889142
sg4
F0.0
sg5
F0.010737184354001986
sg6
F0.05422446406052964
sg7
F0.011307829807566077
sg8
g10
sg9
g10
sg11
F0.0
sg12
F0.03437050030372422
sg13
g10
sg14
F0.0
sg15
I00
sg16
F0.07158760361306125
sg17
F0.1794420697143368
sg18
g10
ssS'SKILLING JEFFREY K'
p205
(dp206
g3
F1.0
sg4
F0.23942174400950558
sg5
F0.08384122985357859
sg6
F0.6973518284993695
sg7
F0.5317507033126446
sg8
F0.369632179742707
sg9
F0.5603918917223095
sg11
F0.007516703786191537
sg12
F0.0021351914003139272
sg13
I30
sg14
F0.03159303882195449
sg15
I01
sg16
F0.1276731623034359
sg17
F0.5440551591529837
sg18
I88
ssS'BLAKE JR. NORMAN P'
p207
(dp208
g3
g10
sg4
F0.0
sg5
F1.0921242536124955e-05
sg6
g10
sg7
g10
sg8
g10
sg9
g10
sg11
F0.0
sg12
g10
sg13
g10
sg14
F0.0
sg15
I00
sg16
F0.004947181943442031
sg17
g10
sg18
g10
ssS'SHERRICK JEFFREY B'
p209
(dp210
g3
g10
sg4
F0.040464717143045746
sg5
g10
sg6
g10
sg7
F0.03817704503652396
sg8
F0.10527269432868273
sg9
F0.04143776088693179
sg11
F0.001739977728285078
sg12
g10
sg13
I18
sg14
F0.08934169278996865
sg15
I00
sg16
g10
sg17
F0.17335351278093103
sg18
I39
ssS'PRENTICE JAMES'
p211
(dp212
g3
g10
sg4
F0.0
sg5
F0.005448068115722104
sg6
g10
sg7
F0.02317469660916466
sg8
g10
sg9
F0.02570806390745882
sg11
F0.0
sg12
g10
sg13
g10
sg14
F0.0
sg15
I00
sg16
g10
sg17
F0.16199868664296083
sg18
g10
ssS'GRAY RODNEY'
p213
(dp214
g3
F0.005525841727577263
sg4
F0.0
sg5
F0.011071011299816642
sg6
g10
sg7
g10
sg8
g10
sg9
g10
sg11
F0.0
sg12
F0.06571900977699509
sg13
g10
sg14
F0.0
sg15
I00
sg16
g10
sg17
g10
sg18
g10
ssS'UMANOFF ADAM S'
p215
(dp216
g3
F0.2593778611625514
sg4
F0.007327216317908773
sg5
F0.010914608677926619
sg6
F0.09063682219419925
sg7
g10
sg8
F0.007066497553904693
sg9
g10
sg11
F0.0012527839643652562
sg12
g10
sg13
I0
sg14
F0.09302325581395349
sg15
I00
sg16
F0.2317170789318286
sg17
g10
sg18
I12
ssS'KEAN STEVEN J'
p217
(dp218
g3
F0.3635829204856763
sg4
F0.8419037560234999
sg5
F0.016873116936621402
sg6
F0.11727616645649433
sg7
F0.12608767219367814
sg8
F0.6589961949628556
sg9
F0.05877877947010722
sg11
F0.4704203786191537
sg12
F0.00011863246975523583
sg13
I387
sg14
F0.02700763593501768
sg15
I00
sg16
F0.1828620169280231
sg17
F0.3878850989946899
sg18
I140
ssS'FOWLER PEGGY'
p219
(dp220
g3
g10
sg4
F0.03412766519242194
sg5
g10
sg6
g10
sg7
F0.0392406373815154
sg8
F0.0014495379597753216
sg9
F0.03847107850817376
sg11
F0.0025055679287305124
sg12
g10
sg13
I0
sg14
F0.0
sg15
I00
sg16
g10
sg17
F0.1822311683441797
sg18
I0
ssS'WASAFF GEORGE'
p221
(dp222
g3
F0.23363651340813354
sg4
F0.02640438312759918
sg5
F0.009986969345057141
sg6
F0.03215636822194199
sg7
F0.04273330131027945
sg8
F0.060699402065591594
sg9
F0.0484778046497988
sg11
F0.0020879732739420937
sg12
F0.00013735883194605417
sg13
I7
sg14
F0.06744186046511629
sg15
I00
sg16
g10
sg17
F0.1723266896170166
sg18
I22
ssS'WHITE JR THOMAS E'
p223
(dp224
g3
F0.2854442054734462
sg4
F0.0
sg5
F0.018677265647250915
sg6
F0.04791929382093316
sg7
F0.3089913976984781
sg8
g10
sg9
F0.03766953765368386
sg11
F0.0
sg12
F0.10477698881447359
sg13
g10
sg14
F0.0
sg15
I00
sg16
F0.3552041642061982
sg17
F0.9473332771321552
sg18
g10
ssS'CHRISTODOULOU DIOMEDES'
p225
(dp226
g3
g10
sg4
F0.0
sg5
g10
sg6
g10
sg7
F0.12454646015696207
sg8
g10
sg9
F0.14918780697065395
sg11
F0.0
sg12
g10
sg13
g10
sg14
F0.0
sg15
I00
sg16
g10
sg17
F0.20472085289433764
sg18
g10
ssS'ALLEN PHILLIP K'
p227
(dp228
g3
F0.18138408921290516
sg4
F0.19156379959073205
sg5
F0.04330155824694069
sg6
F0.5176544766708702
sg7
F0.03608308234920695
sg8
F0.25457510418554086
sg9
F0.050262076693970224
sg11
F0.15277004454342985
sg12
F1.447914602382862e-05
sg13
I65
sg14
F0.0219737100255052
sg15
I00
sg16
F0.06001355991514118
sg17
F0.15723183630900145
sg18
I47
ssS'SHARP VICTORIA T'
p229
(dp230
g3
F0.2229683438949712
sg4
F0.2070103637203776
sg5
F0.015221788371329393
sg6
F0.06683480453972257
sg7
F0.010949813394269228
sg8
F0.4484508063054901
sg9
F0.008088140901850362
sg11
F0.009465478841870824
sg12
F0.00023156980874109906
sg13
I6
sg14
F0.009168704156479218
sg15
I00
sg16
F0.508229993657459
sg17
F0.16224364546638456
sg18
I24
ssS'JAEDICKE ROBERT'
p231
(dp232
g3
g10
sg4
F0.0
sg5
F0.0008072835707383895
sg6
g10
sg7
F0.009680623034004581
sg8
g10
sg9
F0.012475287958843851
sg11
F0.0
sg12
g10
sg13
g10
sg14
F0.0
sg15
I00
sg16
g10
sg17
F0.15251381650683882
sg18
g10
ssS'WINOKUR JR. HERBERT S'
p233
(dp234
g3
g10
sg4
F0.0
sg5
F0.0008192766593589617
sg6
g10
sg7
g10
sg8
g10
sg9
g10
sg11
F0.0
sg12
g10
sg13
g10
sg14
F0.0
sg15
I00
sg16
F0.005533320210834809
sg17
g10
sg18
g10
ssS'BROWN MICHAEL'
p235
(dp236
g3
g10
sg4
F0.09809228331903096
sg5
F0.0004745091584661187
sg6
g10
sg7
g10
sg8
F0.13752491393368363
sg9
g10
sg11
F0.002853563474387528
sg12
g10
sg13
I1
sg14
F0.0091683038637852
sg15
I00
sg16
F0.21494652581851584
sg17
g10
sg18
I13
ssS'MCCLELLAN GEORGE'
p237
(dp238
g3
F0.23671272735129606
sg4
F0.11512311043633243
sg5
F0.01273290382561663
sg6
F0.10466582597730138
sg7
F0.02018046444115597
sg8
F0.2658090233737996
sg9
F0.014659442385069265
sg11
F0.003410356347438753
sg12
F0.004979378317594663
sg13
I0
sg14
F0.029001673173452314
sg15
I00
sg16
F1.0
sg17
F0.17537450944893823
sg18
I52
ssS'HUGHES JAMES A'
p239
(dp240
g3
g10
sg4
F0.047461878671859525
sg5
g10
sg6
g10
sg7
F0.02364981397000877
sg8
F0.10635984779851422
sg9
F0.02188612121921675
sg11
F0.002366369710467706
sg12
g10
sg13
I5
sg14
F0.05312084993359894
sg15
I00
sg16
g10
sg17
F0.17090213946829078
sg18
I35
ssS'REYNOLDS LAWRENCE'
p241
(dp242
g3
F0.06835010681673526
sg4
F0.0
sg5
F0.003807728386863435
sg6
F0.0037831021437578815
sg7
F0.0867878333254771
sg8
g10
sg9
F0.12104746007574473
sg11
F0.0
sg12
F0.01950340969409715
sg13
g10
sg14
F0.0
sg15
I00
sg16
F0.036134986768147324
sg17
F0.1615768323081225
sg18
g10
ssS'PICKERING MARK R'
p243
(dp244
g3
F0.589279074813127
sg4
F0.05927784012146016
sg5
F0.013388825347943207
sg6
F0.029003783102143757
sg7
F0.0014829056927844434
sg8
F0.13154556984961044
sg9
F0.0007428425231792169
sg11
F0.004663140311804009
sg12
g10
sg13
I0
sg14
F0.007253886010362694
sg15
I00
sg16
F0.1378081053299215
sg17
g10
sg18
I7
ssS'BHATNAGAR SANJAY'
p245
(dp246
g3
g10
sg4
F0.03452373093933593
sg5
F0.1492486962464964
sg6
g10
sS'total_stock_value'
p247
S'NaN'
p248
sg8
F0.0835296249320529
sg9
F0.07573729806398287
sg11
F0.0020183741648106906
sg12
F0.013307493527580408
sg13
I1
sg14
F0.0018115942028985507
sg15
I00
sg16
g10
sg17
F0.0
sg18
I0
ssS'CARTER REBECCA C'
p249
(dp250
g3
F0.23526869833027392
sg4
F0.02059541883952736
sg5
F0.004609990696665675
sg6
F0.029003783102143757
sg7
g10
sg8
F0.03515129552455155
sg9
g10
sg11
F0.0010439866369710469
sg12
F5.1931870405465315e-05
sg13
I7
sg14
F0.11009174311926606
sg15
I00
sg16
g10
sg17
F0.1676701686449942
sg18
I29
ssS'BUCHANAN HAROLD G'
p251
(dp252
g3
F0.22285220939141018
sg4
F0.07181992210706978
sg5
F0.010182431583267787
sg6
F0.05422446406052964
sg7
F0.021536280207024548
sg8
F0.0038050371444102193
sg9
F0.023938757608472756
sg11
F0.00869988864142539
sg12
F0.00011708802751269411
sg13
I0
sg14
F0.0
sg15
I00
sg16
F0.001977123110906983
sg17
F0.16086038245362366
sg18
I0
ssS'YEAP SOON'
p253
(dp254
g3
g10
sg4
F0.0
sg5
F0.0005306024368855263
sg6
g10
sg7
F0.004818533100680307
sg8
g10
sg9
F0.0055167405398947895
sg11
F0.0
sg12
g10
sg13
g10
sg14
F0.0
sg15
I00
sg16
F0.24035605712661023
sg17
g10
sg18
g10
ssS'MURRAY JULIA H'
p255
(dp256
g3
F0.205987498885919
sg4
F0.14469601953924352
sg5
F0.007841336265685344
sg6
F0.0416141235813367
sg7
F0.013051873054679327
sg8
F0.07120855227396268
sg9
F0.011564765033869898
sg11
F0.00313195991091314
sg12
F3.166106597210525e-05
sg13
I2
sg14
F0.00581135449262405
sg15
I00
sg16
F0.2512171117380749
sg17
F0.16131770802382378
sg18
I11
ssS'GARLAND C KEVIN'
p257
(dp258
g3
F0.20838401088963532
sg4
F0.013796290184170572
sg5
F0.015124820097635522
sg6
F0.09836065573770492
sg7
F0.01912850895196666
sg8
F0.03188983511505707
sg9
F0.018429441708699108
sg11
F0.003062360801781737
sg12
F0.00587003885334044
sg13
I27
sg14
F0.14624505928853754
sg15
I00
sg16
F0.21108413708636792
sg17
F0.16494107168276
sg18
I10
ssS'DODSON KEITH'
p259
(dp260
g3
F0.19853238397127787
sg4
F0.01161792857614364
sg5
F0.0030880078818346663
sg6
F0.0
sg7
g10
sg8
F0.020293531436854504
sg9
g10
sg11
F0.0009743875278396437
sg12
F7.451933820263797e-05
sg13
I3
sg14
F0.06842105263157895
sg15
I00
sg16
F0.12254663954683638
sg17
g10
sg18
I10
ssS'YEAGER F SCOTT'
p261
(dp262
g3
F0.1421756403827577
sg4
F0.0
sg5
F0.0034777253243770774
sg6
g10
sg7
F0.2426823758252377
sg8
g10
sg9
F0.2418181120980318
sg11
F0.0
sg12
F0.014281071306222644
sg13
g10
sg14
F0.0
sg15
I01
sg16
F0.2353257660258513
sg17
F0.3559040949928896
sg18
g10
ssS'HIRKO JOSEPH'
p263
(dp264
g3
g10
sg4
F0.0
sg5
F0.0008781895689194376
sg6
g10
sg7
F0.6268065633738387
sg8
g10
sg9
F0.8956963262793332
sg11
F0.0
sg12
F0.0002754898850133792
sg13
g10
sg14
F0.0
sg15
I01
sg16
F0.3404413533670144
sg17
g10
sg18
g10
ssS'DIETRICH JANET R'
p265
(dp266
g3
F0.22472746653030615
sg4
F0.16978018351046273
sg5
F0.013618393535435546
sg6
F0.06683480453972257
sg7
F0.03884065097954759
sg8
F0.3442652654466389
sg9
F0.04503507181621459
sg11
F0.004384743875278397
sg12
F4.546451851482187e-05
sg13
I14
sg14
F0.12106261859582543
sg15
I00
sg16
F0.014552850862804279
sg17
F0.1681174171596938
sg18
I305
ssS'DERRICK JR. JAMES V'
p267
(dp268
g3
F0.4428397676949822
sg4
F0.14396989900323454
sg5
F0.0053189927408499715
sg6
F0.09205548549810845
sg7
F0.18057482853286244
sg8
F0.25348795071570934
sg9
F0.25705641436642823
sg11
F0.06326559020044543
sg12
F0.0007220267483882539
sg13
I20
sg14
F0.027184466019417475
sg15
I00
sg16
F0.22297749491503183
sg17
F0.2528978156628998
sg18
I64
ssS'FREVERT MARK A'
p269
(dp270
g3
F0.9546931393316954
sg4
F0.2161858868572183
sg5
F0.1665936765233214
sg6
F0.24337957124842372
sg7
F0.29837301090888096
sg8
F0.5394093132813915
sg9
F0.30368912315553376
sg11
F0.0014615812917594655
sg12
F0.7169705340690927
sg13
I6
sg14
F0.07524271844660194
sg15
I00
sg16
F0.37984821643374234
sg17
F0.39117154350086353
sg18
I242
ssS'PAI LOU L'
p271
(dp272
g3
F0.2353317170531365
sg4
F0.0
sg5
F0.030158803653681895
sg6
F0.11727616645649433
sg7
F0.48545265873774984
sg8
g10
sg9
F0.44725106193463005
sg11
F0.0
sg12
F0.17659297392682258
sg13
g10
sg14
F0.0
sg15
I00
sg16
F0.13953152680270323
sg17
F0.6367693098264996
sg18
g10
ssS'HAYSLETT RODERICK J'
p273
(dp274
g3
g10
sg4
F0.1748630272625256
sg5
g10
sg6
g10
sg7
F0.00794960004513147
sg8
F0.10309838738901975
sg9
g10
sg11
F0.07384465478841871
sg12
g10
sg13
I38
sg14
F0.019676549865229112
sg15
I00
sg16
g10
sg17
F0.1699367575513423
sg18
I35
ssS'BAY FRANKLIN R'
p275
(dp276
g3
F0.2153385770912538
sg4
F0.0
sg5
F0.007991027779208784
sg6
F0.0416141235813367
sg7
F0.0021790012489479277
sg8
g10
sg9
g10
sg11
F0.0
sg12
F6.46735189064345e-06
sg13
g10
sg14
F0.0
sg15
I00
sg16
F0.564241191522866
sg17
F0.1583701980815129
sg18
g10
ssS'MCCARTY DANNY J'
p277
(dp278
g3
g10
sg4
F0.09459370255462407
sg5
g10
sg6
g10
sg7
F0.016336843520359644
sg8
F0.0916832759557891
sg9
F0.019248452304650512
sg11
F0.01496380846325167
sg12
g10
sg13
I2
sg14
F0.016383495145631068
sg15
I00
sg16
g10
sg17
F0.15541963623096472
sg18
I25
ssS'FUGH JOHN L'
p279
(dp280
g3
g10
sg4
F0.0
sg5
F0.0004870912796195854
sg6
g10
sg7
F0.004485295866346724
sg8
g10
sg9
F0.005039816597995539
sg11
F0.0
sg12
g10
sg13
g10
sg14
F0.0
sg15
I00
sg16
g10
sg17
g10
sg18
g10
ssS'SCRIMSHAW MATTHEW'
p281
(dp282
g3
g10
sg4
F0.0
sg5
g10
sg6
g10
sg7
F0.01634957896045078
sg8
g10
sg9
F0.02201979385763308
sg11
F0.0
sg12
g10
sg13
g10
sg14
F0.0
sg15
I00
sg16
g10
sg17
g10
sg18
g10
ssS'KOENIG MARK E'
p283
(dp284
g3
F0.2786048735079192
sg4
F0.15671001386230113
sg5
F0.01532713828827822
sg6
F0.07944514501891552
sg7
F0.039958928409147616
sg8
F0.4111252038412756
sg9
F0.01946280603238325
sg11
F0.00424554565701559
sg12
F0.01452316262774106
sg13
I15
sg14
F0.02792607802874743
sg15
I01
sg16
F0.5549460884018984
sg17
F0.2218569145645353
sg18
I53
ssS'SAVAGE FRANK'
p285
(dp286
g3
g10
sg4
F0.0
sg5
F3.478188825386568e-05
sg6
g10
sg7
g10
sg8
g10
sg9
g10
sg11
F0.0
sg12
g10
sg13
g10
sg14
F0.0
sg15
I00
sg16
g10
sg17
g10
sg18
g10
ssS'IZZO LAWRENCE L'
p287
(dp288
g3
F0.07633998060823871
sg4
F0.03274143507822298
sg5
F0.01911408637988282
sg6
g10
sg7
F0.11929960124848815
sg8
F0.07881862656278311
sg9
F0.06294601159833606
sg11
F0.0013223830734966592
sg12
F0.14997760076110114
sg13
I5
sg14
F0.06407766990291262
sg15
I00
sg16
F0.1222360737484417
sg17
F0.36043024765832266
sg18
I28
ssS'TILNEY ELIZABETH A'
p289
(dp290
g3
F0.22224092777964333
sg4
F0.03036504059673906
sg5
F0.003855217927794171
sg6
F0.029003783102143757
sg7
F0.02465986050298763
sg8
F0.06830947635441204
sg9
F0.01711932756402886
sg11
F0.0013223830734966592
sg12
F0.014677317269074754
sg13
I11
sg14
F0.04384133611691023
sg15
I00
sg16
g10
sg17
F0.1831883158672049
sg18
I10
ssS'MARTIN AMANDA K'
p291
(dp292
g3
F0.3142023495180418
sg4
F0.10046867780051488
sg5
F0.08117899593031629
sg6
g10
sg7
F0.043015657816708984
sg8
F0.08606631636165972
sg9
F0.060183870775856546
sg11
F0.016007795100222717
sg12
F0.27205852046101214
sg13
I0
sg14
F0.0045662100456621
sg15
I00
sg16
F0.035268901865581875
sg17
g10
sg18
I8
ssS'BUY RICHARD B'
p293
(dp294
g3
F0.2971503833789019
sg4
F0.2325566043963298
sg5
F0.022745867852289374
sg6
F0.10466582597730138
sg7
F0.07097186116718356
sg8
F0.4223591230295343
sg9
F0.07394149599044685
sg11
F0.07328786191536749
sg12
F0.03866607681843354
sg13
I71
sg14
F0.04960664335664336
sg15
I00
sg16
g10
sg17
F0.20189507378247287
sg18
I156
ssS'GRAMM WENDY L'
p295
(dp296
g3
g10
sg4
F0.0
sg5
F0.0011504867557242014
sg6
g10
sg7
g10
sg8
g10
sg9
g10
sg11
F0.0
sg12
g10
sg13
g10
sg14
F0.0
sg15
I00
sg16
g10
sg17
g10
sg18
g10
ssS'CAUSEY RICHARD A'
p297
(dp298
g3
F0.3733517227968429
sg4
F0.12489273219354413
sg5
F0.018043804611342574
sg6
F0.11727616645649433
sg7
F0.05179938849950292
sg8
F0.28682732379054177
sg9
g10
sg11
F0.003410356347438753
sg12
F0.0297201847114311
sg13
I12
sg14
F0.03606388459556929
sg15
I01
sg16
F0.13352579664501454
sg17
F0.29405153141300355
sg18
I58
ssS'TAYLOR MITCHELL S'
p299
(dp300
g3
F0.23833410906380287
sg4
F0.03518384051752591
sg5
F0.010549620945494744
sg6
F0.06683480453972257
sg7
F0.0770868661379723
sg8
F0.05399528900163073
sg9
F0.09253037820621801
sg11
F0.0020183741648106906
sg12
g10
sg13
I0
sg14
F0.0
sg15
I00
sg16
g10
sg17
F0.18244008010049875
sg18
I0
ssS'DONAHUE JR JEFFREY M'
p301
(dp302
g3
F0.25038598967753317
sg4
F0.05709947851343323
sg5
F0.008455146790045486
sg6
F0.09205548549810845
sg7
F0.02288882056417959
sg8
F0.1395180286283747
sg9
F0.022205060465832403
sg11
F0.0015311804008908685
sg12
F8.581307210122428e-05
sg13
I11
sg14
F0.22435174746335965
sg15
I00
sg16
F0.4204448526999541
sg17
F0.1681174171596938
sg18
I188
ssS'GLISAN JR BEN F'
p303
(dp304
g3
F0.24712161983325245
sg4
F0.05762756617598521
sg5
F0.012284090004364152
sg6
F0.06683480453972257
sg7
F0.016735894091266437
sg8
F0.15799963761551006
sg9
F0.011106184320505235
sg11
F0.0011135857461024498
sg12
F0.019335065489660103
sg13
I6
sg14
F0.06524184476940383
sg15
I01
sg16
F0.5504013297465171
sg17
F0.17265209213492153
sg18
I52
ss.